Microsoft (R) Macro Assembler Version 5.00                  1/19/16 21:37:03
                                                             Page     1-1


       1				.model flat 
       2				.386p 
       3 0100				.STACK 256 
       4				descr struc 
       5 0000  0000			limit_1 dw 0 ;молодші 2 байта розміру с
					егменту (розряди 0-15) 
       6 0002  0000			base_1 dw 0 ;молодші 2 байта фізичної 3
					2-розрядної адреси сегменту  
       7 0004  00			base_2 db 0 ;3-тій байт фізичної 32-роз
					рядної адреси сегменту 
       8 0005  00			attrib db 0 ;байт атрибутів сегменту 
       9 0006  00			bt6 db 0  ;старші 4 розряди байту – атр
					ибути сегменту, 
      10				;молодші 4 розряди байту - розряди 16-1
					9 розміру сегменту 
      11 0007  00			base_3 db 0 ;4-тий байт фізичної 32-роз
					рядної адреси сегменту 
      12 0008				descr ends 
      13				;ОПИС вказівника ТАБЛИЦІ ДЕСКРИПТОРІВ 
      14				point_dt struc 
      15 0000  00000000			lim dd 0 
      16 0004  00000000			adr dd 0 
      17 0008				point_dt ends 
      18				;Рекомендується розміщувати GDT в окрем
					ому  логічному  сегменті 
      19 0000				GDT segment para public 'data' use16 
      20				; Визначення таблиці глобальних дескрип
					торів 
      21 0000  0000			selector0 descr	<> 
      22 0002  0000			
      23 0004  00			
      24 0005  00			
      25 0006  00			
      26 0007  00			
      27				
      28 0008  0000			descr_gdt descr	<> 
      29 000A  0000			
      30 000C  00			
      31 000D  00			
      32 000E  00			
      33 000F  00			
      34				
      35 0010  0000			descr_ds descr <> 
      36 0012  0000			
      37 0014  00			
      38 0015  00			
      39 0016  00			
      40 0017  00			
      41				
      42 0018  0000			descr_es descr <>; video 
      43 001A  0000			
      44 001C  00			
      45 001D  00			
      46 001E  00			
Microsoft (R) Macro Assembler Version 5.00                  1/19/16 21:37:03
                                                             Page     1-2


      47 001F  00			
      48				
      49 0020  0000			descr_ss descr <> 
      50 0022  0000			
      51 0024  00			
      52 0025  00			
      53 0026  00			
      54 0027  00			
      55				
      56 0028  0000			descr_cs descr <> 
      57 002A  0000			
      58 002C  00			
      59 002D  00			
      60 002E  00			
      61 002F  00			
      62				
      63 = 002F				gdt_size equ $-selector0-1 
      64 0030  0000			deskr_Int_code descr <> 
      65 0032  0000			
      66 0034  00			
      67 0035  00			
      68 0036  00			
      69 0037  00			
      70				
      71 0038				GDT ends 
      72				;Визначимо  вказівник для GDT (в логічн
					ому сегменті даних _DATA): 
      73 0000				ST_p segment use16 
      74 0000  03E8[			Db 1000 dup (0) 
      75	   00			
      76			 ]	
      77				
      78 03E8  03E8			Top_stp	dw 1000;equ	$; Top_stp=1000
					 
      79 03EA				ST_p ends 
      80 0000				IDT	segment para public 'data' use1
					6 
      81 = 0000				Vector=0 
      82				Rept 256 
      83				Dw Vector * Proc_int_size; зміщення про
					цедури 
      84				Dw offset deskr_Int_code; селектор деск
					риптора в GDT 
      85				Db 0; завжди 0 
      86				Db 10001111b ;байт атрибутів - шлюз пас
					тки 
      87				Dw 0; всі процедури розміщуються в перш
					их 64К 
      88				Vector=Vector+1 
      89				Endm 
      90 0000  0000                  1	Dw Vector * Proc_int_size; зміщення про
					цедури 
      91 0002  0030 R                1	Dw offset deskr_Int_code; селектор деск
					риптора в GDT 
Microsoft (R) Macro Assembler Version 5.00                  1/19/16 21:37:03
                                                             Page     1-3


      92 0004  00                    1	Db 0; завжди 0 
      93 0005  8F                    1	Db 10001111b ;байт атрибутів - шлюз пас
					тки 
      94 0006  0000                  1	Dw 0; всі процедури розміщуються в перш
					их 64К 
      95 0008  0007                  1	Dw Vector * Proc_int_size; зміщення про
					цедури 
      96 000A  0030 R                1	Dw offset deskr_Int_code; селектор деск
					риптора в GDT 
      97 000C  00                    1	Db 0; завжди 0 
      98 000D  8F                    1	Db 10001111b ;байт атрибутів - шлюз пас
					тки 
      99 000E  0000                  1	Dw 0; всі процедури розміщуються в перш
					их 64К 
     100 0010  000E                  1	Dw Vector * Proc_int_size; зміщення про
					цедури 
     101 0012  0030 R                1	Dw offset deskr_Int_code; селектор деск
					риптора в GDT 
     102 0014  00                    1	Db 0; завжди 0 
     103 0015  8F                    1	Db 10001111b ;байт атрибутів - шлюз пас
					тки 
     104 0016  0000                  1	Dw 0; всі процедури розміщуються в перш
					их 64К 
     105 0018  0015                  1	Dw Vector * Proc_int_size; зміщення про
					цедури 
     106 001A  0030 R                1	Dw offset deskr_Int_code; селектор деск
					риптора в GDT 
     107 001C  00                    1	Db 0; завжди 0 
     108 001D  8F                    1	Db 10001111b ;байт атрибутів - шлюз пас
					тки 
     109 001E  0000                  1	Dw 0; всі процедури розміщуються в перш
					их 64К 
     110 0020  001C                  1	Dw Vector * Proc_int_size; зміщення про
					цедури 
     111 0022  0030 R                1	Dw offset deskr_Int_code; селектор деск
					риптора в GDT 
     112 0024  00                    1	Db 0; завжди 0 
     113 0025  8F                    1	Db 10001111b ;байт атрибутів - шлюз пас
					тки 
     114 0026  0000                  1	Dw 0; всі процедури розміщуються в перш
					их 64К 
     115 0028  0023                  1	Dw Vector * Proc_int_size; зміщення про
					цедури 
     116 002A  0030 R                1	Dw offset deskr_Int_code; селектор деск
					риптора в GDT 
     117 002C  00                    1	Db 0; завжди 0 
     118 002D  8F                    1	Db 10001111b ;байт атрибутів - шлюз пас
					тки 
     119 002E  0000                  1	Dw 0; всі процедури розміщуються в перш
					их 64К 
     120 0030  002A                  1	Dw Vector * Proc_int_size; зміщення про
					цедури 
     121 0032  0030 R                1	Dw offset deskr_Int_code; селектор деск
					риптора в GDT 
Microsoft (R) Macro Assembler Version 5.00                  1/19/16 21:37:03
                                                             Page     1-4


     122 0034  00                    1	Db 0; завжди 0 
     123 0035  8F                    1	Db 10001111b ;байт атрибутів - шлюз пас
					тки 
     124 0036  0000                  1	Dw 0; всі процедури розміщуються в перш
					их 64К 
     125 0038  0031                  1	Dw Vector * Proc_int_size; зміщення про
					цедури 
     126 003A  0030 R                1	Dw offset deskr_Int_code; селектор деск
					риптора в GDT 
     127 003C  00                    1	Db 0; завжди 0 
     128 003D  8F                    1	Db 10001111b ;байт атрибутів - шлюз пас
					тки 
     129 003E  0000                  1	Dw 0; всі процедури розміщуються в перш
					их 64К 
     130 0040  0038                  1	Dw Vector * Proc_int_size; зміщення про
					цедури 
     131 0042  0030 R                1	Dw offset deskr_Int_code; селектор деск
					риптора в GDT 
     132 0044  00                    1	Db 0; завжди 0 
     133 0045  8F                    1	Db 10001111b ;байт атрибутів - шлюз пас
					тки 
     134 0046  0000                  1	Dw 0; всі процедури розміщуються в перш
					их 64К 
     135 0048  003F                  1	Dw Vector * Proc_int_size; зміщення про
					цедури 
     136 004A  0030 R                1	Dw offset deskr_Int_code; селектор деск
					риптора в GDT 
     137 004C  00                    1	Db 0; завжди 0 
     138 004D  8F                    1	Db 10001111b ;байт атрибутів - шлюз пас
					тки 
     139 004E  0000                  1	Dw 0; всі процедури розміщуються в перш
					их 64К 
     140 0050  0046                  1	Dw Vector * Proc_int_size; зміщення про
					цедури 
     141 0052  0030 R                1	Dw offset deskr_Int_code; селектор деск
					риптора в GDT 
     142 0054  00                    1	Db 0; завжди 0 
     143 0055  8F                    1	Db 10001111b ;байт атрибутів - шлюз пас
					тки 
     144 0056  0000                  1	Dw 0; всі процедури розміщуються в перш
					их 64К 
     145 0058  004D                  1	Dw Vector * Proc_int_size; зміщення про
					цедури 
     146 005A  0030 R                1	Dw offset deskr_Int_code; селектор деск
					риптора в GDT 
     147 005C  00                    1	Db 0; завжди 0 
     148 005D  8F                    1	Db 10001111b ;байт атрибутів - шлюз пас
					тки 
     149 005E  0000                  1	Dw 0; всі процедури розміщуються в перш
					их 64К 
     150 0060  0054                  1	Dw Vector * Proc_int_size; зміщення про
					цедури 
     151 0062  0030 R                1	Dw offset deskr_Int_code; селектор деск
					риптора в GDT 
Microsoft (R) Macro Assembler Version 5.00                  1/19/16 21:37:03
                                                             Page     1-5


     152 0064  00                    1	Db 0; завжди 0 
     153 0065  8F                    1	Db 10001111b ;байт атрибутів - шлюз пас
					тки 
     154 0066  0000                  1	Dw 0; всі процедури розміщуються в перш
					их 64К 
     155 0068  005B                  1	Dw Vector * Proc_int_size; зміщення про
					цедури 
     156 006A  0030 R                1	Dw offset deskr_Int_code; селектор деск
					риптора в GDT 
     157 006C  00                    1	Db 0; завжди 0 
     158 006D  8F                    1	Db 10001111b ;байт атрибутів - шлюз пас
					тки 
     159 006E  0000                  1	Dw 0; всі процедури розміщуються в перш
					их 64К 
     160 0070  0062                  1	Dw Vector * Proc_int_size; зміщення про
					цедури 
     161 0072  0030 R                1	Dw offset deskr_Int_code; селектор деск
					риптора в GDT 
     162 0074  00                    1	Db 0; завжди 0 
     163 0075  8F                    1	Db 10001111b ;байт атрибутів - шлюз пас
					тки 
     164 0076  0000                  1	Dw 0; всі процедури розміщуються в перш
					их 64К 
     165 0078  0069                  1	Dw Vector * Proc_int_size; зміщення про
					цедури 
     166 007A  0030 R                1	Dw offset deskr_Int_code; селектор деск
					риптора в GDT 
     167 007C  00                    1	Db 0; завжди 0 
     168 007D  8F                    1	Db 10001111b ;байт атрибутів - шлюз пас
					тки 
     169 007E  0000                  1	Dw 0; всі процедури розміщуються в перш
					их 64К 
     170 0080  0070                  1	Dw Vector * Proc_int_size; зміщення про
					цедури 
     171 0082  0030 R                1	Dw offset deskr_Int_code; селектор деск
					риптора в GDT 
     172 0084  00                    1	Db 0; завжди 0 
     173 0085  8F                    1	Db 10001111b ;байт атрибутів - шлюз пас
					тки 
     174 0086  0000                  1	Dw 0; всі процедури розміщуються в перш
					их 64К 
     175 0088  0077                  1	Dw Vector * Proc_int_size; зміщення про
					цедури 
     176 008A  0030 R                1	Dw offset deskr_Int_code; селектор деск
					риптора в GDT 
     177 008C  00                    1	Db 0; завжди 0 
     178 008D  8F                    1	Db 10001111b ;байт атрибутів - шлюз пас
					тки 
     179 008E  0000                  1	Dw 0; всі процедури розміщуються в перш
					их 64К 
     180 0090  007E                  1	Dw Vector * Proc_int_size; зміщення про
					цедури 
     181 0092  0030 R                1	Dw offset deskr_Int_code; селектор деск
					риптора в GDT 
Microsoft (R) Macro Assembler Version 5.00                  1/19/16 21:37:03
                                                             Page     1-6


     182 0094  00                    1	Db 0; завжди 0 
     183 0095  8F                    1	Db 10001111b ;байт атрибутів - шлюз пас
					тки 
     184 0096  0000                  1	Dw 0; всі процедури розміщуються в перш
					их 64К 
     185 0098  0085                  1	Dw Vector * Proc_int_size; зміщення про
					цедури 
     186 009A  0030 R                1	Dw offset deskr_Int_code; селектор деск
					риптора в GDT 
     187 009C  00                    1	Db 0; завжди 0 
     188 009D  8F                    1	Db 10001111b ;байт атрибутів - шлюз пас
					тки 
     189 009E  0000                  1	Dw 0; всі процедури розміщуються в перш
					их 64К 
     190 00A0  008C                  1	Dw Vector * Proc_int_size; зміщення про
					цедури 
     191 00A2  0030 R                1	Dw offset deskr_Int_code; селектор деск
					риптора в GDT 
     192 00A4  00                    1	Db 0; завжди 0 
     193 00A5  8F                    1	Db 10001111b ;байт атрибутів - шлюз пас
					тки 
     194 00A6  0000                  1	Dw 0; всі процедури розміщуються в перш
					их 64К 
     195 00A8  0093                  1	Dw Vector * Proc_int_size; зміщення про
					цедури 
     196 00AA  0030 R                1	Dw offset deskr_Int_code; селектор деск
					риптора в GDT 
     197 00AC  00                    1	Db 0; завжди 0 
     198 00AD  8F                    1	Db 10001111b ;байт атрибутів - шлюз пас
					тки 
     199 00AE  0000                  1	Dw 0; всі процедури розміщуються в перш
					их 64К 
     200 00B0  009A                  1	Dw Vector * Proc_int_size; зміщення про
					цедури 
     201 00B2  0030 R                1	Dw offset deskr_Int_code; селектор деск
					риптора в GDT 
     202 00B4  00                    1	Db 0; завжди 0 
     203 00B5  8F                    1	Db 10001111b ;байт атрибутів - шлюз пас
					тки 
     204 00B6  0000                  1	Dw 0; всі процедури розміщуються в перш
					их 64К 
     205 00B8  00A1                  1	Dw Vector * Proc_int_size; зміщення про
					цедури 
     206 00BA  0030 R                1	Dw offset deskr_Int_code; селектор деск
					риптора в GDT 
     207 00BC  00                    1	Db 0; завжди 0 
     208 00BD  8F                    1	Db 10001111b ;байт атрибутів - шлюз пас
					тки 
     209 00BE  0000                  1	Dw 0; всі процедури розміщуються в перш
					их 64К 
     210 00C0  00A8                  1	Dw Vector * Proc_int_size; зміщення про
					цедури 
     211 00C2  0030 R                1	Dw offset deskr_Int_code; селектор деск
					риптора в GDT 
Microsoft (R) Macro Assembler Version 5.00                  1/19/16 21:37:03
                                                             Page     1-7


     212 00C4  00                    1	Db 0; завжди 0 
     213 00C5  8F                    1	Db 10001111b ;байт атрибутів - шлюз пас
					тки 
     214 00C6  0000                  1	Dw 0; всі процедури розміщуються в перш
					их 64К 
     215 00C8  00AF                  1	Dw Vector * Proc_int_size; зміщення про
					цедури 
     216 00CA  0030 R                1	Dw offset deskr_Int_code; селектор деск
					риптора в GDT 
     217 00CC  00                    1	Db 0; завжди 0 
     218 00CD  8F                    1	Db 10001111b ;байт атрибутів - шлюз пас
					тки 
     219 00CE  0000                  1	Dw 0; всі процедури розміщуються в перш
					их 64К 
     220 00D0  00B6                  1	Dw Vector * Proc_int_size; зміщення про
					цедури 
     221 00D2  0030 R                1	Dw offset deskr_Int_code; селектор деск
					риптора в GDT 
     222 00D4  00                    1	Db 0; завжди 0 
     223 00D5  8F                    1	Db 10001111b ;байт атрибутів - шлюз пас
					тки 
     224 00D6  0000                  1	Dw 0; всі процедури розміщуються в перш
					их 64К 
     225 00D8  00BD                  1	Dw Vector * Proc_int_size; зміщення про
					цедури 
     226 00DA  0030 R                1	Dw offset deskr_Int_code; селектор деск
					риптора в GDT 
     227 00DC  00                    1	Db 0; завжди 0 
     228 00DD  8F                    1	Db 10001111b ;байт атрибутів - шлюз пас
					тки 
     229 00DE  0000                  1	Dw 0; всі процедури розміщуються в перш
					их 64К 
     230 00E0  00C4                  1	Dw Vector * Proc_int_size; зміщення про
					цедури 
     231 00E2  0030 R                1	Dw offset deskr_Int_code; селектор деск
					риптора в GDT 
     232 00E4  00                    1	Db 0; завжди 0 
     233 00E5  8F                    1	Db 10001111b ;байт атрибутів - шлюз пас
					тки 
     234 00E6  0000                  1	Dw 0; всі процедури розміщуються в перш
					их 64К 
     235 00E8  00CB                  1	Dw Vector * Proc_int_size; зміщення про
					цедури 
     236 00EA  0030 R                1	Dw offset deskr_Int_code; селектор деск
					риптора в GDT 
     237 00EC  00                    1	Db 0; завжди 0 
     238 00ED  8F                    1	Db 10001111b ;байт атрибутів - шлюз пас
					тки 
     239 00EE  0000                  1	Dw 0; всі процедури розміщуються в перш
					их 64К 
     240 00F0  00D2                  1	Dw Vector * Proc_int_size; зміщення про
					цедури 
     241 00F2  0030 R                1	Dw offset deskr_Int_code; селектор деск
					риптора в GDT 
Microsoft (R) Macro Assembler Version 5.00                  1/19/16 21:37:03
                                                             Page     1-8


     242 00F4  00                    1	Db 0; завжди 0 
     243 00F5  8F                    1	Db 10001111b ;байт атрибутів - шлюз пас
					тки 
     244 00F6  0000                  1	Dw 0; всі процедури розміщуються в перш
					их 64К 
     245 00F8  00D9                  1	Dw Vector * Proc_int_size; зміщення про
					цедури 
     246 00FA  0030 R                1	Dw offset deskr_Int_code; селектор деск
					риптора в GDT 
     247 00FC  00                    1	Db 0; завжди 0 
     248 00FD  8F                    1	Db 10001111b ;байт атрибутів - шлюз пас
					тки 
     249 00FE  0000                  1	Dw 0; всі процедури розміщуються в перш
					их 64К 
     250 0100  00E0                  1	Dw Vector * Proc_int_size; зміщення про
					цедури 
     251 0102  0030 R                1	Dw offset deskr_Int_code; селектор деск
					риптора в GDT 
     252 0104  00                    1	Db 0; завжди 0 
     253 0105  8F                    1	Db 10001111b ;байт атрибутів - шлюз пас
					тки 
     254 0106  0000                  1	Dw 0; всі процедури розміщуються в перш
					их 64К 
     255 0108  00E7                  1	Dw Vector * Proc_int_size; зміщення про
					цедури 
     256 010A  0030 R                1	Dw offset deskr_Int_code; селектор деск
					риптора в GDT 
     257 010C  00                    1	Db 0; завжди 0 
     258 010D  8F                    1	Db 10001111b ;байт атрибутів - шлюз пас
					тки 
     259 010E  0000                  1	Dw 0; всі процедури розміщуються в перш
					их 64К 
     260 0110  00EE                  1	Dw Vector * Proc_int_size; зміщення про
					цедури 
     261 0112  0030 R                1	Dw offset deskr_Int_code; селектор деск
					риптора в GDT 
     262 0114  00                    1	Db 0; завжди 0 
     263 0115  8F                    1	Db 10001111b ;байт атрибутів - шлюз пас
					тки 
     264 0116  0000                  1	Dw 0; всі процедури розміщуються в перш
					их 64К 
     265 0118  00F5                  1	Dw Vector * Proc_int_size; зміщення про
					цедури 
     266 011A  0030 R                1	Dw offset deskr_Int_code; селектор деск
					риптора в GDT 
     267 011C  00                    1	Db 0; завжди 0 
     268 011D  8F                    1	Db 10001111b ;байт атрибутів - шлюз пас
					тки 
     269 011E  0000                  1	Dw 0; всі процедури розміщуються в перш
					их 64К 
     270 0120  00FC                  1	Dw Vector * Proc_int_size; зміщення про
					цедури 
     271 0122  0030 R                1	Dw offset deskr_Int_code; селектор деск
					риптора в GDT 
Microsoft (R) Macro Assembler Version 5.00                  1/19/16 21:37:03
                                                             Page     1-9


     272 0124  00                    1	Db 0; завжди 0 
     273 0125  8F                    1	Db 10001111b ;байт атрибутів - шлюз пас
					тки 
     274 0126  0000                  1	Dw 0; всі процедури розміщуються в перш
					их 64К 
     275 0128  0103                  1	Dw Vector * Proc_int_size; зміщення про
					цедури 
     276 012A  0030 R                1	Dw offset deskr_Int_code; селектор деск
					риптора в GDT 
     277 012C  00                    1	Db 0; завжди 0 
     278 012D  8F                    1	Db 10001111b ;байт атрибутів - шлюз пас
					тки 
     279 012E  0000                  1	Dw 0; всі процедури розміщуються в перш
					их 64К 
     280 0130  010A                  1	Dw Vector * Proc_int_size; зміщення про
					цедури 
     281 0132  0030 R                1	Dw offset deskr_Int_code; селектор деск
					риптора в GDT 
     282 0134  00                    1	Db 0; завжди 0 
     283 0135  8F                    1	Db 10001111b ;байт атрибутів - шлюз пас
					тки 
     284 0136  0000                  1	Dw 0; всі процедури розміщуються в перш
					их 64К 
     285 0138  0111                  1	Dw Vector * Proc_int_size; зміщення про
					цедури 
     286 013A  0030 R                1	Dw offset deskr_Int_code; селектор деск
					риптора в GDT 
     287 013C  00                    1	Db 0; завжди 0 
     288 013D  8F                    1	Db 10001111b ;байт атрибутів - шлюз пас
					тки 
     289 013E  0000                  1	Dw 0; всі процедури розміщуються в перш
					их 64К 
     290 0140  0118                  1	Dw Vector * Proc_int_size; зміщення про
					цедури 
     291 0142  0030 R                1	Dw offset deskr_Int_code; селектор деск
					риптора в GDT 
     292 0144  00                    1	Db 0; завжди 0 
     293 0145  8F                    1	Db 10001111b ;байт атрибутів - шлюз пас
					тки 
     294 0146  0000                  1	Dw 0; всі процедури розміщуються в перш
					их 64К 
     295 0148  011F                  1	Dw Vector * Proc_int_size; зміщення про
					цедури 
     296 014A  0030 R                1	Dw offset deskr_Int_code; селектор деск
					риптора в GDT 
     297 014C  00                    1	Db 0; завжди 0 
     298 014D  8F                    1	Db 10001111b ;байт атрибутів - шлюз пас
					тки 
     299 014E  0000                  1	Dw 0; всі процедури розміщуються в перш
					их 64К 
     300 0150  0126                  1	Dw Vector * Proc_int_size; зміщення про
					цедури 
     301 0152  0030 R                1	Dw offset deskr_Int_code; селектор деск
					риптора в GDT 
Microsoft (R) Macro Assembler Version 5.00                  1/19/16 21:37:03
                                                             Page     1-10


     302 0154  00                    1	Db 0; завжди 0 
     303 0155  8F                    1	Db 10001111b ;байт атрибутів - шлюз пас
					тки 
     304 0156  0000                  1	Dw 0; всі процедури розміщуються в перш
					их 64К 
     305 0158  012D                  1	Dw Vector * Proc_int_size; зміщення про
					цедури 
     306 015A  0030 R                1	Dw offset deskr_Int_code; селектор деск
					риптора в GDT 
     307 015C  00                    1	Db 0; завжди 0 
     308 015D  8F                    1	Db 10001111b ;байт атрибутів - шлюз пас
					тки 
     309 015E  0000                  1	Dw 0; всі процедури розміщуються в перш
					их 64К 
     310 0160  0134                  1	Dw Vector * Proc_int_size; зміщення про
					цедури 
     311 0162  0030 R                1	Dw offset deskr_Int_code; селектор деск
					риптора в GDT 
     312 0164  00                    1	Db 0; завжди 0 
     313 0165  8F                    1	Db 10001111b ;байт атрибутів - шлюз пас
					тки 
     314 0166  0000                  1	Dw 0; всі процедури розміщуються в перш
					их 64К 
     315 0168  013B                  1	Dw Vector * Proc_int_size; зміщення про
					цедури 
     316 016A  0030 R                1	Dw offset deskr_Int_code; селектор деск
					риптора в GDT 
     317 016C  00                    1	Db 0; завжди 0 
     318 016D  8F                    1	Db 10001111b ;байт атрибутів - шлюз пас
					тки 
     319 016E  0000                  1	Dw 0; всі процедури розміщуються в перш
					их 64К 
     320 0170  0142                  1	Dw Vector * Proc_int_size; зміщення про
					цедури 
     321 0172  0030 R                1	Dw offset deskr_Int_code; селектор деск
					риптора в GDT 
     322 0174  00                    1	Db 0; завжди 0 
     323 0175  8F                    1	Db 10001111b ;байт атрибутів - шлюз пас
					тки 
     324 0176  0000                  1	Dw 0; всі процедури розміщуються в перш
					их 64К 
     325 0178  0149                  1	Dw Vector * Proc_int_size; зміщення про
					цедури 
     326 017A  0030 R                1	Dw offset deskr_Int_code; селектор деск
					риптора в GDT 
     327 017C  00                    1	Db 0; завжди 0 
     328 017D  8F                    1	Db 10001111b ;байт атрибутів - шлюз пас
					тки 
     329 017E  0000                  1	Dw 0; всі процедури розміщуються в перш
					их 64К 
     330 0180  0150                  1	Dw Vector * Proc_int_size; зміщення про
					цедури 
     331 0182  0030 R                1	Dw offset deskr_Int_code; селектор деск
					риптора в GDT 
Microsoft (R) Macro Assembler Version 5.00                  1/19/16 21:37:03
                                                             Page     1-11


     332 0184  00                    1	Db 0; завжди 0 
     333 0185  8F                    1	Db 10001111b ;байт атрибутів - шлюз пас
					тки 
     334 0186  0000                  1	Dw 0; всі процедури розміщуються в перш
					их 64К 
     335 0188  0157                  1	Dw Vector * Proc_int_size; зміщення про
					цедури 
     336 018A  0030 R                1	Dw offset deskr_Int_code; селектор деск
					риптора в GDT 
     337 018C  00                    1	Db 0; завжди 0 
     338 018D  8F                    1	Db 10001111b ;байт атрибутів - шлюз пас
					тки 
     339 018E  0000                  1	Dw 0; всі процедури розміщуються в перш
					их 64К 
     340 0190  015E                  1	Dw Vector * Proc_int_size; зміщення про
					цедури 
     341 0192  0030 R                1	Dw offset deskr_Int_code; селектор деск
					риптора в GDT 
     342 0194  00                    1	Db 0; завжди 0 
     343 0195  8F                    1	Db 10001111b ;байт атрибутів - шлюз пас
					тки 
     344 0196  0000                  1	Dw 0; всі процедури розміщуються в перш
					их 64К 
     345 0198  0165                  1	Dw Vector * Proc_int_size; зміщення про
					цедури 
     346 019A  0030 R                1	Dw offset deskr_Int_code; селектор деск
					риптора в GDT 
     347 019C  00                    1	Db 0; завжди 0 
     348 019D  8F                    1	Db 10001111b ;байт атрибутів - шлюз пас
					тки 
     349 019E  0000                  1	Dw 0; всі процедури розміщуються в перш
					их 64К 
     350 01A0  016C                  1	Dw Vector * Proc_int_size; зміщення про
					цедури 
     351 01A2  0030 R                1	Dw offset deskr_Int_code; селектор деск
					риптора в GDT 
     352 01A4  00                    1	Db 0; завжди 0 
     353 01A5  8F                    1	Db 10001111b ;байт атрибутів - шлюз пас
					тки 
     354 01A6  0000                  1	Dw 0; всі процедури розміщуються в перш
					их 64К 
     355 01A8  0173                  1	Dw Vector * Proc_int_size; зміщення про
					цедури 
     356 01AA  0030 R                1	Dw offset deskr_Int_code; селектор деск
					риптора в GDT 
     357 01AC  00                    1	Db 0; завжди 0 
     358 01AD  8F                    1	Db 10001111b ;байт атрибутів - шлюз пас
					тки 
     359 01AE  0000                  1	Dw 0; всі процедури розміщуються в перш
					их 64К 
     360 01B0  017A                  1	Dw Vector * Proc_int_size; зміщення про
					цедури 
     361 01B2  0030 R                1	Dw offset deskr_Int_code; селектор деск
					риптора в GDT 
Microsoft (R) Macro Assembler Version 5.00                  1/19/16 21:37:03
                                                             Page     1-12


     362 01B4  00                    1	Db 0; завжди 0 
     363 01B5  8F                    1	Db 10001111b ;байт атрибутів - шлюз пас
					тки 
     364 01B6  0000                  1	Dw 0; всі процедури розміщуються в перш
					их 64К 
     365 01B8  0181                  1	Dw Vector * Proc_int_size; зміщення про
					цедури 
     366 01BA  0030 R                1	Dw offset deskr_Int_code; селектор деск
					риптора в GDT 
     367 01BC  00                    1	Db 0; завжди 0 
     368 01BD  8F                    1	Db 10001111b ;байт атрибутів - шлюз пас
					тки 
     369 01BE  0000                  1	Dw 0; всі процедури розміщуються в перш
					их 64К 
     370 01C0  0188                  1	Dw Vector * Proc_int_size; зміщення про
					цедури 
     371 01C2  0030 R                1	Dw offset deskr_Int_code; селектор деск
					риптора в GDT 
     372 01C4  00                    1	Db 0; завжди 0 
     373 01C5  8F                    1	Db 10001111b ;байт атрибутів - шлюз пас
					тки 
     374 01C6  0000                  1	Dw 0; всі процедури розміщуються в перш
					их 64К 
     375 01C8  018F                  1	Dw Vector * Proc_int_size; зміщення про
					цедури 
     376 01CA  0030 R                1	Dw offset deskr_Int_code; селектор деск
					риптора в GDT 
     377 01CC  00                    1	Db 0; завжди 0 
     378 01CD  8F                    1	Db 10001111b ;байт атрибутів - шлюз пас
					тки 
     379 01CE  0000                  1	Dw 0; всі процедури розміщуються в перш
					их 64К 
     380 01D0  0196                  1	Dw Vector * Proc_int_size; зміщення про
					цедури 
     381 01D2  0030 R                1	Dw offset deskr_Int_code; селектор деск
					риптора в GDT 
     382 01D4  00                    1	Db 0; завжди 0 
     383 01D5  8F                    1	Db 10001111b ;байт атрибутів - шлюз пас
					тки 
     384 01D6  0000                  1	Dw 0; всі процедури розміщуються в перш
					их 64К 
     385 01D8  019D                  1	Dw Vector * Proc_int_size; зміщення про
					цедури 
     386 01DA  0030 R                1	Dw offset deskr_Int_code; селектор деск
					риптора в GDT 
     387 01DC  00                    1	Db 0; завжди 0 
     388 01DD  8F                    1	Db 10001111b ;байт атрибутів - шлюз пас
					тки 
     389 01DE  0000                  1	Dw 0; всі процедури розміщуються в перш
					их 64К 
     390 01E0  01A4                  1	Dw Vector * Proc_int_size; зміщення про
					цедури 
     391 01E2  0030 R                1	Dw offset deskr_Int_code; селектор деск
					риптора в GDT 
Microsoft (R) Macro Assembler Version 5.00                  1/19/16 21:37:03
                                                             Page     1-13


     392 01E4  00                    1	Db 0; завжди 0 
     393 01E5  8F                    1	Db 10001111b ;байт атрибутів - шлюз пас
					тки 
     394 01E6  0000                  1	Dw 0; всі процедури розміщуються в перш
					их 64К 
     395 01E8  01AB                  1	Dw Vector * Proc_int_size; зміщення про
					цедури 
     396 01EA  0030 R                1	Dw offset deskr_Int_code; селектор деск
					риптора в GDT 
     397 01EC  00                    1	Db 0; завжди 0 
     398 01ED  8F                    1	Db 10001111b ;байт атрибутів - шлюз пас
					тки 
     399 01EE  0000                  1	Dw 0; всі процедури розміщуються в перш
					их 64К 
     400 01F0  01B2                  1	Dw Vector * Proc_int_size; зміщення про
					цедури 
     401 01F2  0030 R                1	Dw offset deskr_Int_code; селектор деск
					риптора в GDT 
     402 01F4  00                    1	Db 0; завжди 0 
     403 01F5  8F                    1	Db 10001111b ;байт атрибутів - шлюз пас
					тки 
     404 01F6  0000                  1	Dw 0; всі процедури розміщуються в перш
					их 64К 
     405 01F8  01B9                  1	Dw Vector * Proc_int_size; зміщення про
					цедури 
     406 01FA  0030 R                1	Dw offset deskr_Int_code; селектор деск
					риптора в GDT 
     407 01FC  00                    1	Db 0; завжди 0 
     408 01FD  8F                    1	Db 10001111b ;байт атрибутів - шлюз пас
					тки 
     409 01FE  0000                  1	Dw 0; всі процедури розміщуються в перш
					их 64К 
     410 0200  01C0                  1	Dw Vector * Proc_int_size; зміщення про
					цедури 
     411 0202  0030 R                1	Dw offset deskr_Int_code; селектор деск
					риптора в GDT 
     412 0204  00                    1	Db 0; завжди 0 
     413 0205  8F                    1	Db 10001111b ;байт атрибутів - шлюз пас
					тки 
     414 0206  0000                  1	Dw 0; всі процедури розміщуються в перш
					их 64К 
     415 0208  01C7                  1	Dw Vector * Proc_int_size; зміщення про
					цедури 
     416 020A  0030 R                1	Dw offset deskr_Int_code; селектор деск
					риптора в GDT 
     417 020C  00                    1	Db 0; завжди 0 
     418 020D  8F                    1	Db 10001111b ;байт атрибутів - шлюз пас
					тки 
     419 020E  0000                  1	Dw 0; всі процедури розміщуються в перш
					их 64К 
     420 0210  01CE                  1	Dw Vector * Proc_int_size; зміщення про
					цедури 
     421 0212  0030 R                1	Dw offset deskr_Int_code; селектор деск
					риптора в GDT 
Microsoft (R) Macro Assembler Version 5.00                  1/19/16 21:37:03
                                                             Page     1-14


     422 0214  00                    1	Db 0; завжди 0 
     423 0215  8F                    1	Db 10001111b ;байт атрибутів - шлюз пас
					тки 
     424 0216  0000                  1	Dw 0; всі процедури розміщуються в перш
					их 64К 
     425 0218  01D5                  1	Dw Vector * Proc_int_size; зміщення про
					цедури 
     426 021A  0030 R                1	Dw offset deskr_Int_code; селектор деск
					риптора в GDT 
     427 021C  00                    1	Db 0; завжди 0 
     428 021D  8F                    1	Db 10001111b ;байт атрибутів - шлюз пас
					тки 
     429 021E  0000                  1	Dw 0; всі процедури розміщуються в перш
					их 64К 
     430 0220  01DC                  1	Dw Vector * Proc_int_size; зміщення про
					цедури 
     431 0222  0030 R                1	Dw offset deskr_Int_code; селектор деск
					риптора в GDT 
     432 0224  00                    1	Db 0; завжди 0 
     433 0225  8F                    1	Db 10001111b ;байт атрибутів - шлюз пас
					тки 
     434 0226  0000                  1	Dw 0; всі процедури розміщуються в перш
					их 64К 
     435 0228  01E3                  1	Dw Vector * Proc_int_size; зміщення про
					цедури 
     436 022A  0030 R                1	Dw offset deskr_Int_code; селектор деск
					риптора в GDT 
     437 022C  00                    1	Db 0; завжди 0 
     438 022D  8F                    1	Db 10001111b ;байт атрибутів - шлюз пас
					тки 
     439 022E  0000                  1	Dw 0; всі процедури розміщуються в перш
					их 64К 
     440 0230  01EA                  1	Dw Vector * Proc_int_size; зміщення про
					цедури 
     441 0232  0030 R                1	Dw offset deskr_Int_code; селектор деск
					риптора в GDT 
     442 0234  00                    1	Db 0; завжди 0 
     443 0235  8F                    1	Db 10001111b ;байт атрибутів - шлюз пас
					тки 
     444 0236  0000                  1	Dw 0; всі процедури розміщуються в перш
					их 64К 
     445 0238  01F1                  1	Dw Vector * Proc_int_size; зміщення про
					цедури 
     446 023A  0030 R                1	Dw offset deskr_Int_code; селектор деск
					риптора в GDT 
     447 023C  00                    1	Db 0; завжди 0 
     448 023D  8F                    1	Db 10001111b ;байт атрибутів - шлюз пас
					тки 
     449 023E  0000                  1	Dw 0; всі процедури розміщуються в перш
					их 64К 
     450 0240  01F8                  1	Dw Vector * Proc_int_size; зміщення про
					цедури 
     451 0242  0030 R                1	Dw offset deskr_Int_code; селектор деск
					риптора в GDT 
Microsoft (R) Macro Assembler Version 5.00                  1/19/16 21:37:03
                                                             Page     1-15


     452 0244  00                    1	Db 0; завжди 0 
     453 0245  8F                    1	Db 10001111b ;байт атрибутів - шлюз пас
					тки 
     454 0246  0000                  1	Dw 0; всі процедури розміщуються в перш
					их 64К 
     455 0248  01FF                  1	Dw Vector * Proc_int_size; зміщення про
					цедури 
     456 024A  0030 R                1	Dw offset deskr_Int_code; селектор деск
					риптора в GDT 
     457 024C  00                    1	Db 0; завжди 0 
     458 024D  8F                    1	Db 10001111b ;байт атрибутів - шлюз пас
					тки 
     459 024E  0000                  1	Dw 0; всі процедури розміщуються в перш
					их 64К 
     460 0250  0206                  1	Dw Vector * Proc_int_size; зміщення про
					цедури 
     461 0252  0030 R                1	Dw offset deskr_Int_code; селектор деск
					риптора в GDT 
     462 0254  00                    1	Db 0; завжди 0 
     463 0255  8F                    1	Db 10001111b ;байт атрибутів - шлюз пас
					тки 
     464 0256  0000                  1	Dw 0; всі процедури розміщуються в перш
					их 64К 
     465 0258  020D                  1	Dw Vector * Proc_int_size; зміщення про
					цедури 
     466 025A  0030 R                1	Dw offset deskr_Int_code; селектор деск
					риптора в GDT 
     467 025C  00                    1	Db 0; завжди 0 
     468 025D  8F                    1	Db 10001111b ;байт атрибутів - шлюз пас
					тки 
     469 025E  0000                  1	Dw 0; всі процедури розміщуються в перш
					их 64К 
     470 0260  0214                  1	Dw Vector * Proc_int_size; зміщення про
					цедури 
     471 0262  0030 R                1	Dw offset deskr_Int_code; селектор деск
					риптора в GDT 
     472 0264  00                    1	Db 0; завжди 0 
     473 0265  8F                    1	Db 10001111b ;байт атрибутів - шлюз пас
					тки 
     474 0266  0000                  1	Dw 0; всі процедури розміщуються в перш
					их 64К 
     475 0268  021B                  1	Dw Vector * Proc_int_size; зміщення про
					цедури 
     476 026A  0030 R                1	Dw offset deskr_Int_code; селектор деск
					риптора в GDT 
     477 026C  00                    1	Db 0; завжди 0 
     478 026D  8F                    1	Db 10001111b ;байт атрибутів - шлюз пас
					тки 
     479 026E  0000                  1	Dw 0; всі процедури розміщуються в перш
					их 64К 
     480 0270  0222                  1	Dw Vector * Proc_int_size; зміщення про
					цедури 
     481 0272  0030 R                1	Dw offset deskr_Int_code; селектор деск
					риптора в GDT 
Microsoft (R) Macro Assembler Version 5.00                  1/19/16 21:37:03
                                                             Page     1-16


     482 0274  00                    1	Db 0; завжди 0 
     483 0275  8F                    1	Db 10001111b ;байт атрибутів - шлюз пас
					тки 
     484 0276  0000                  1	Dw 0; всі процедури розміщуються в перш
					их 64К 
     485 0278  0229                  1	Dw Vector * Proc_int_size; зміщення про
					цедури 
     486 027A  0030 R                1	Dw offset deskr_Int_code; селектор деск
					риптора в GDT 
     487 027C  00                    1	Db 0; завжди 0 
     488 027D  8F                    1	Db 10001111b ;байт атрибутів - шлюз пас
					тки 
     489 027E  0000                  1	Dw 0; всі процедури розміщуються в перш
					их 64К 
     490 0280  0230                  1	Dw Vector * Proc_int_size; зміщення про
					цедури 
     491 0282  0030 R                1	Dw offset deskr_Int_code; селектор деск
					риптора в GDT 
     492 0284  00                    1	Db 0; завжди 0 
     493 0285  8F                    1	Db 10001111b ;байт атрибутів - шлюз пас
					тки 
     494 0286  0000                  1	Dw 0; всі процедури розміщуються в перш
					их 64К 
     495 0288  0237                  1	Dw Vector * Proc_int_size; зміщення про
					цедури 
     496 028A  0030 R                1	Dw offset deskr_Int_code; селектор деск
					риптора в GDT 
     497 028C  00                    1	Db 0; завжди 0 
     498 028D  8F                    1	Db 10001111b ;байт атрибутів - шлюз пас
					тки 
     499 028E  0000                  1	Dw 0; всі процедури розміщуються в перш
					их 64К 
     500 0290  023E                  1	Dw Vector * Proc_int_size; зміщення про
					цедури 
     501 0292  0030 R                1	Dw offset deskr_Int_code; селектор деск
					риптора в GDT 
     502 0294  00                    1	Db 0; завжди 0 
     503 0295  8F                    1	Db 10001111b ;байт атрибутів - шлюз пас
					тки 
     504 0296  0000                  1	Dw 0; всі процедури розміщуються в перш
					их 64К 
     505 0298  0245                  1	Dw Vector * Proc_int_size; зміщення про
					цедури 
     506 029A  0030 R                1	Dw offset deskr_Int_code; селектор деск
					риптора в GDT 
     507 029C  00                    1	Db 0; завжди 0 
     508 029D  8F                    1	Db 10001111b ;байт атрибутів - шлюз пас
					тки 
     509 029E  0000                  1	Dw 0; всі процедури розміщуються в перш
					их 64К 
     510 02A0  024C                  1	Dw Vector * Proc_int_size; зміщення про
					цедури 
     511 02A2  0030 R                1	Dw offset deskr_Int_code; селектор деск
					риптора в GDT 
Microsoft (R) Macro Assembler Version 5.00                  1/19/16 21:37:03
                                                             Page     1-17


     512 02A4  00                    1	Db 0; завжди 0 
     513 02A5  8F                    1	Db 10001111b ;байт атрибутів - шлюз пас
					тки 
     514 02A6  0000                  1	Dw 0; всі процедури розміщуються в перш
					их 64К 
     515 02A8  0253                  1	Dw Vector * Proc_int_size; зміщення про
					цедури 
     516 02AA  0030 R                1	Dw offset deskr_Int_code; селектор деск
					риптора в GDT 
     517 02AC  00                    1	Db 0; завжди 0 
     518 02AD  8F                    1	Db 10001111b ;байт атрибутів - шлюз пас
					тки 
     519 02AE  0000                  1	Dw 0; всі процедури розміщуються в перш
					их 64К 
     520 02B0  025A                  1	Dw Vector * Proc_int_size; зміщення про
					цедури 
     521 02B2  0030 R                1	Dw offset deskr_Int_code; селектор деск
					риптора в GDT 
     522 02B4  00                    1	Db 0; завжди 0 
     523 02B5  8F                    1	Db 10001111b ;байт атрибутів - шлюз пас
					тки 
     524 02B6  0000                  1	Dw 0; всі процедури розміщуються в перш
					их 64К 
     525 02B8  0261                  1	Dw Vector * Proc_int_size; зміщення про
					цедури 
     526 02BA  0030 R                1	Dw offset deskr_Int_code; селектор деск
					риптора в GDT 
     527 02BC  00                    1	Db 0; завжди 0 
     528 02BD  8F                    1	Db 10001111b ;байт атрибутів - шлюз пас
					тки 
     529 02BE  0000                  1	Dw 0; всі процедури розміщуються в перш
					их 64К 
     530 02C0  0268                  1	Dw Vector * Proc_int_size; зміщення про
					цедури 
     531 02C2  0030 R                1	Dw offset deskr_Int_code; селектор деск
					риптора в GDT 
     532 02C4  00                    1	Db 0; завжди 0 
     533 02C5  8F                    1	Db 10001111b ;байт атрибутів - шлюз пас
					тки 
     534 02C6  0000                  1	Dw 0; всі процедури розміщуються в перш
					их 64К 
     535 02C8  026F                  1	Dw Vector * Proc_int_size; зміщення про
					цедури 
     536 02CA  0030 R                1	Dw offset deskr_Int_code; селектор деск
					риптора в GDT 
     537 02CC  00                    1	Db 0; завжди 0 
     538 02CD  8F                    1	Db 10001111b ;байт атрибутів - шлюз пас
					тки 
     539 02CE  0000                  1	Dw 0; всі процедури розміщуються в перш
					их 64К 
     540 02D0  0276                  1	Dw Vector * Proc_int_size; зміщення про
					цедури 
     541 02D2  0030 R                1	Dw offset deskr_Int_code; селектор деск
					риптора в GDT 
Microsoft (R) Macro Assembler Version 5.00                  1/19/16 21:37:03
                                                             Page     1-18


     542 02D4  00                    1	Db 0; завжди 0 
     543 02D5  8F                    1	Db 10001111b ;байт атрибутів - шлюз пас
					тки 
     544 02D6  0000                  1	Dw 0; всі процедури розміщуються в перш
					их 64К 
     545 02D8  027D                  1	Dw Vector * Proc_int_size; зміщення про
					цедури 
     546 02DA  0030 R                1	Dw offset deskr_Int_code; селектор деск
					риптора в GDT 
     547 02DC  00                    1	Db 0; завжди 0 
     548 02DD  8F                    1	Db 10001111b ;байт атрибутів - шлюз пас
					тки 
     549 02DE  0000                  1	Dw 0; всі процедури розміщуються в перш
					их 64К 
     550 02E0  0284                  1	Dw Vector * Proc_int_size; зміщення про
					цедури 
     551 02E2  0030 R                1	Dw offset deskr_Int_code; селектор деск
					риптора в GDT 
     552 02E4  00                    1	Db 0; завжди 0 
     553 02E5  8F                    1	Db 10001111b ;байт атрибутів - шлюз пас
					тки 
     554 02E6  0000                  1	Dw 0; всі процедури розміщуються в перш
					их 64К 
     555 02E8  028B                  1	Dw Vector * Proc_int_size; зміщення про
					цедури 
     556 02EA  0030 R                1	Dw offset deskr_Int_code; селектор деск
					риптора в GDT 
     557 02EC  00                    1	Db 0; завжди 0 
     558 02ED  8F                    1	Db 10001111b ;байт атрибутів - шлюз пас
					тки 
     559 02EE  0000                  1	Dw 0; всі процедури розміщуються в перш
					их 64К 
     560 02F0  0292                  1	Dw Vector * Proc_int_size; зміщення про
					цедури 
     561 02F2  0030 R                1	Dw offset deskr_Int_code; селектор деск
					риптора в GDT 
     562 02F4  00                    1	Db 0; завжди 0 
     563 02F5  8F                    1	Db 10001111b ;байт атрибутів - шлюз пас
					тки 
     564 02F6  0000                  1	Dw 0; всі процедури розміщуються в перш
					их 64К 
     565 02F8  0299                  1	Dw Vector * Proc_int_size; зміщення про
					цедури 
     566 02FA  0030 R                1	Dw offset deskr_Int_code; селектор деск
					риптора в GDT 
     567 02FC  00                    1	Db 0; завжди 0 
     568 02FD  8F                    1	Db 10001111b ;байт атрибутів - шлюз пас
					тки 
     569 02FE  0000                  1	Dw 0; всі процедури розміщуються в перш
					их 64К 
     570 0300  02A0                  1	Dw Vector * Proc_int_size; зміщення про
					цедури 
     571 0302  0030 R                1	Dw offset deskr_Int_code; селектор деск
					риптора в GDT 
Microsoft (R) Macro Assembler Version 5.00                  1/19/16 21:37:03
                                                             Page     1-19


     572 0304  00                    1	Db 0; завжди 0 
     573 0305  8F                    1	Db 10001111b ;байт атрибутів - шлюз пас
					тки 
     574 0306  0000                  1	Dw 0; всі процедури розміщуються в перш
					их 64К 
     575 0308  02A7                  1	Dw Vector * Proc_int_size; зміщення про
					цедури 
     576 030A  0030 R                1	Dw offset deskr_Int_code; селектор деск
					риптора в GDT 
     577 030C  00                    1	Db 0; завжди 0 
     578 030D  8F                    1	Db 10001111b ;байт атрибутів - шлюз пас
					тки 
     579 030E  0000                  1	Dw 0; всі процедури розміщуються в перш
					их 64К 
     580 0310  02AE                  1	Dw Vector * Proc_int_size; зміщення про
					цедури 
     581 0312  0030 R                1	Dw offset deskr_Int_code; селектор деск
					риптора в GDT 
     582 0314  00                    1	Db 0; завжди 0 
     583 0315  8F                    1	Db 10001111b ;байт атрибутів - шлюз пас
					тки 
     584 0316  0000                  1	Dw 0; всі процедури розміщуються в перш
					их 64К 
     585 0318  02B5                  1	Dw Vector * Proc_int_size; зміщення про
					цедури 
     586 031A  0030 R                1	Dw offset deskr_Int_code; селектор деск
					риптора в GDT 
     587 031C  00                    1	Db 0; завжди 0 
     588 031D  8F                    1	Db 10001111b ;байт атрибутів - шлюз пас
					тки 
     589 031E  0000                  1	Dw 0; всі процедури розміщуються в перш
					их 64К 
     590 0320  02BC                  1	Dw Vector * Proc_int_size; зміщення про
					цедури 
     591 0322  0030 R                1	Dw offset deskr_Int_code; селектор деск
					риптора в GDT 
     592 0324  00                    1	Db 0; завжди 0 
     593 0325  8F                    1	Db 10001111b ;байт атрибутів - шлюз пас
					тки 
     594 0326  0000                  1	Dw 0; всі процедури розміщуються в перш
					их 64К 
     595 0328  02C3                  1	Dw Vector * Proc_int_size; зміщення про
					цедури 
     596 032A  0030 R                1	Dw offset deskr_Int_code; селектор деск
					риптора в GDT 
     597 032C  00                    1	Db 0; завжди 0 
     598 032D  8F                    1	Db 10001111b ;байт атрибутів - шлюз пас
					тки 
     599 032E  0000                  1	Dw 0; всі процедури розміщуються в перш
					их 64К 
     600 0330  02CA                  1	Dw Vector * Proc_int_size; зміщення про
					цедури 
     601 0332  0030 R                1	Dw offset deskr_Int_code; селектор деск
					риптора в GDT 
Microsoft (R) Macro Assembler Version 5.00                  1/19/16 21:37:03
                                                             Page     1-20


     602 0334  00                    1	Db 0; завжди 0 
     603 0335  8F                    1	Db 10001111b ;байт атрибутів - шлюз пас
					тки 
     604 0336  0000                  1	Dw 0; всі процедури розміщуються в перш
					их 64К 
     605 0338  02D1                  1	Dw Vector * Proc_int_size; зміщення про
					цедури 
     606 033A  0030 R                1	Dw offset deskr_Int_code; селектор деск
					риптора в GDT 
     607 033C  00                    1	Db 0; завжди 0 
     608 033D  8F                    1	Db 10001111b ;байт атрибутів - шлюз пас
					тки 
     609 033E  0000                  1	Dw 0; всі процедури розміщуються в перш
					их 64К 
     610 0340  02D8                  1	Dw Vector * Proc_int_size; зміщення про
					цедури 
     611 0342  0030 R                1	Dw offset deskr_Int_code; селектор деск
					риптора в GDT 
     612 0344  00                    1	Db 0; завжди 0 
     613 0345  8F                    1	Db 10001111b ;байт атрибутів - шлюз пас
					тки 
     614 0346  0000                  1	Dw 0; всі процедури розміщуються в перш
					их 64К 
     615 0348  02DF                  1	Dw Vector * Proc_int_size; зміщення про
					цедури 
     616 034A  0030 R                1	Dw offset deskr_Int_code; селектор деск
					риптора в GDT 
     617 034C  00                    1	Db 0; завжди 0 
     618 034D  8F                    1	Db 10001111b ;байт атрибутів - шлюз пас
					тки 
     619 034E  0000                  1	Dw 0; всі процедури розміщуються в перш
					их 64К 
     620 0350  02E6                  1	Dw Vector * Proc_int_size; зміщення про
					цедури 
     621 0352  0030 R                1	Dw offset deskr_Int_code; селектор деск
					риптора в GDT 
     622 0354  00                    1	Db 0; завжди 0 
     623 0355  8F                    1	Db 10001111b ;байт атрибутів - шлюз пас
					тки 
     624 0356  0000                  1	Dw 0; всі процедури розміщуються в перш
					их 64К 
     625 0358  02ED                  1	Dw Vector * Proc_int_size; зміщення про
					цедури 
     626 035A  0030 R                1	Dw offset deskr_Int_code; селектор деск
					риптора в GDT 
     627 035C  00                    1	Db 0; завжди 0 
     628 035D  8F                    1	Db 10001111b ;байт атрибутів - шлюз пас
					тки 
     629 035E  0000                  1	Dw 0; всі процедури розміщуються в перш
					их 64К 
     630 0360  02F4                  1	Dw Vector * Proc_int_size; зміщення про
					цедури 
     631 0362  0030 R                1	Dw offset deskr_Int_code; селектор деск
					риптора в GDT 
Microsoft (R) Macro Assembler Version 5.00                  1/19/16 21:37:03
                                                             Page     1-21


     632 0364  00                    1	Db 0; завжди 0 
     633 0365  8F                    1	Db 10001111b ;байт атрибутів - шлюз пас
					тки 
     634 0366  0000                  1	Dw 0; всі процедури розміщуються в перш
					их 64К 
     635 0368  02FB                  1	Dw Vector * Proc_int_size; зміщення про
					цедури 
     636 036A  0030 R                1	Dw offset deskr_Int_code; селектор деск
					риптора в GDT 
     637 036C  00                    1	Db 0; завжди 0 
     638 036D  8F                    1	Db 10001111b ;байт атрибутів - шлюз пас
					тки 
     639 036E  0000                  1	Dw 0; всі процедури розміщуються в перш
					их 64К 
     640 0370  0302                  1	Dw Vector * Proc_int_size; зміщення про
					цедури 
     641 0372  0030 R                1	Dw offset deskr_Int_code; селектор деск
					риптора в GDT 
     642 0374  00                    1	Db 0; завжди 0 
     643 0375  8F                    1	Db 10001111b ;байт атрибутів - шлюз пас
					тки 
     644 0376  0000                  1	Dw 0; всі процедури розміщуються в перш
					их 64К 
     645 0378  0309                  1	Dw Vector * Proc_int_size; зміщення про
					цедури 
     646 037A  0030 R                1	Dw offset deskr_Int_code; селектор деск
					риптора в GDT 
     647 037C  00                    1	Db 0; завжди 0 
     648 037D  8F                    1	Db 10001111b ;байт атрибутів - шлюз пас
					тки 
     649 037E  0000                  1	Dw 0; всі процедури розміщуються в перш
					их 64К 
     650 0380  0310                  1	Dw Vector * Proc_int_size; зміщення про
					цедури 
     651 0382  0030 R                1	Dw offset deskr_Int_code; селектор деск
					риптора в GDT 
     652 0384  00                    1	Db 0; завжди 0 
     653 0385  8F                    1	Db 10001111b ;байт атрибутів - шлюз пас
					тки 
     654 0386  0000                  1	Dw 0; всі процедури розміщуються в перш
					их 64К 
     655 0388  0317                  1	Dw Vector * Proc_int_size; зміщення про
					цедури 
     656 038A  0030 R                1	Dw offset deskr_Int_code; селектор деск
					риптора в GDT 
     657 038C  00                    1	Db 0; завжди 0 
     658 038D  8F                    1	Db 10001111b ;байт атрибутів - шлюз пас
					тки 
     659 038E  0000                  1	Dw 0; всі процедури розміщуються в перш
					их 64К 
     660 0390  031E                  1	Dw Vector * Proc_int_size; зміщення про
					цедури 
     661 0392  0030 R                1	Dw offset deskr_Int_code; селектор деск
					риптора в GDT 
Microsoft (R) Macro Assembler Version 5.00                  1/19/16 21:37:03
                                                             Page     1-22


     662 0394  00                    1	Db 0; завжди 0 
     663 0395  8F                    1	Db 10001111b ;байт атрибутів - шлюз пас
					тки 
     664 0396  0000                  1	Dw 0; всі процедури розміщуються в перш
					их 64К 
     665 0398  0325                  1	Dw Vector * Proc_int_size; зміщення про
					цедури 
     666 039A  0030 R                1	Dw offset deskr_Int_code; селектор деск
					риптора в GDT 
     667 039C  00                    1	Db 0; завжди 0 
     668 039D  8F                    1	Db 10001111b ;байт атрибутів - шлюз пас
					тки 
     669 039E  0000                  1	Dw 0; всі процедури розміщуються в перш
					их 64К 
     670 03A0  032C                  1	Dw Vector * Proc_int_size; зміщення про
					цедури 
     671 03A2  0030 R                1	Dw offset deskr_Int_code; селектор деск
					риптора в GDT 
     672 03A4  00                    1	Db 0; завжди 0 
     673 03A5  8F                    1	Db 10001111b ;байт атрибутів - шлюз пас
					тки 
     674 03A6  0000                  1	Dw 0; всі процедури розміщуються в перш
					их 64К 
     675 03A8  0333                  1	Dw Vector * Proc_int_size; зміщення про
					цедури 
     676 03AA  0030 R                1	Dw offset deskr_Int_code; селектор деск
					риптора в GDT 
     677 03AC  00                    1	Db 0; завжди 0 
     678 03AD  8F                    1	Db 10001111b ;байт атрибутів - шлюз пас
					тки 
     679 03AE  0000                  1	Dw 0; всі процедури розміщуються в перш
					их 64К 
     680 03B0  033A                  1	Dw Vector * Proc_int_size; зміщення про
					цедури 
     681 03B2  0030 R                1	Dw offset deskr_Int_code; селектор деск
					риптора в GDT 
     682 03B4  00                    1	Db 0; завжди 0 
     683 03B5  8F                    1	Db 10001111b ;байт атрибутів - шлюз пас
					тки 
     684 03B6  0000                  1	Dw 0; всі процедури розміщуються в перш
					их 64К 
     685 03B8  0341                  1	Dw Vector * Proc_int_size; зміщення про
					цедури 
     686 03BA  0030 R                1	Dw offset deskr_Int_code; селектор деск
					риптора в GDT 
     687 03BC  00                    1	Db 0; завжди 0 
     688 03BD  8F                    1	Db 10001111b ;байт атрибутів - шлюз пас
					тки 
     689 03BE  0000                  1	Dw 0; всі процедури розміщуються в перш
					их 64К 
     690 03C0  0348                  1	Dw Vector * Proc_int_size; зміщення про
					цедури 
     691 03C2  0030 R                1	Dw offset deskr_Int_code; селектор деск
					риптора в GDT 
Microsoft (R) Macro Assembler Version 5.00                  1/19/16 21:37:03
                                                             Page     1-23


     692 03C4  00                    1	Db 0; завжди 0 
     693 03C5  8F                    1	Db 10001111b ;байт атрибутів - шлюз пас
					тки 
     694 03C6  0000                  1	Dw 0; всі процедури розміщуються в перш
					их 64К 
     695 03C8  034F                  1	Dw Vector * Proc_int_size; зміщення про
					цедури 
     696 03CA  0030 R                1	Dw offset deskr_Int_code; селектор деск
					риптора в GDT 
     697 03CC  00                    1	Db 0; завжди 0 
     698 03CD  8F                    1	Db 10001111b ;байт атрибутів - шлюз пас
					тки 
     699 03CE  0000                  1	Dw 0; всі процедури розміщуються в перш
					их 64К 
     700 03D0  0356                  1	Dw Vector * Proc_int_size; зміщення про
					цедури 
     701 03D2  0030 R                1	Dw offset deskr_Int_code; селектор деск
					риптора в GDT 
     702 03D4  00                    1	Db 0; завжди 0 
     703 03D5  8F                    1	Db 10001111b ;байт атрибутів - шлюз пас
					тки 
     704 03D6  0000                  1	Dw 0; всі процедури розміщуються в перш
					их 64К 
     705 03D8  035D                  1	Dw Vector * Proc_int_size; зміщення про
					цедури 
     706 03DA  0030 R                1	Dw offset deskr_Int_code; селектор деск
					риптора в GDT 
     707 03DC  00                    1	Db 0; завжди 0 
     708 03DD  8F                    1	Db 10001111b ;байт атрибутів - шлюз пас
					тки 
     709 03DE  0000                  1	Dw 0; всі процедури розміщуються в перш
					их 64К 
     710 03E0  0364                  1	Dw Vector * Proc_int_size; зміщення про
					цедури 
     711 03E2  0030 R                1	Dw offset deskr_Int_code; селектор деск
					риптора в GDT 
     712 03E4  00                    1	Db 0; завжди 0 
     713 03E5  8F                    1	Db 10001111b ;байт атрибутів - шлюз пас
					тки 
     714 03E6  0000                  1	Dw 0; всі процедури розміщуються в перш
					их 64К 
     715 03E8  036B                  1	Dw Vector * Proc_int_size; зміщення про
					цедури 
     716 03EA  0030 R                1	Dw offset deskr_Int_code; селектор деск
					риптора в GDT 
     717 03EC  00                    1	Db 0; завжди 0 
     718 03ED  8F                    1	Db 10001111b ;байт атрибутів - шлюз пас
					тки 
     719 03EE  0000                  1	Dw 0; всі процедури розміщуються в перш
					их 64К 
     720 03F0  0372                  1	Dw Vector * Proc_int_size; зміщення про
					цедури 
     721 03F2  0030 R                1	Dw offset deskr_Int_code; селектор деск
					риптора в GDT 
Microsoft (R) Macro Assembler Version 5.00                  1/19/16 21:37:03
                                                             Page     1-24


     722 03F4  00                    1	Db 0; завжди 0 
     723 03F5  8F                    1	Db 10001111b ;байт атрибутів - шлюз пас
					тки 
     724 03F6  0000                  1	Dw 0; всі процедури розміщуються в перш
					их 64К 
     725 03F8  0379                  1	Dw Vector * Proc_int_size; зміщення про
					цедури 
     726 03FA  0030 R                1	Dw offset deskr_Int_code; селектор деск
					риптора в GDT 
     727 03FC  00                    1	Db 0; завжди 0 
     728 03FD  8F                    1	Db 10001111b ;байт атрибутів - шлюз пас
					тки 
     729 03FE  0000                  1	Dw 0; всі процедури розміщуються в перш
					их 64К 
     730 0400  0380                  1	Dw Vector * Proc_int_size; зміщення про
					цедури 
     731 0402  0030 R                1	Dw offset deskr_Int_code; селектор деск
					риптора в GDT 
     732 0404  00                    1	Db 0; завжди 0 
     733 0405  8F                    1	Db 10001111b ;байт атрибутів - шлюз пас
					тки 
     734 0406  0000                  1	Dw 0; всі процедури розміщуються в перш
					их 64К 
     735 0408  0387                  1	Dw Vector * Proc_int_size; зміщення про
					цедури 
     736 040A  0030 R                1	Dw offset deskr_Int_code; селектор деск
					риптора в GDT 
     737 040C  00                    1	Db 0; завжди 0 
     738 040D  8F                    1	Db 10001111b ;байт атрибутів - шлюз пас
					тки 
     739 040E  0000                  1	Dw 0; всі процедури розміщуються в перш
					их 64К 
     740 0410  038E                  1	Dw Vector * Proc_int_size; зміщення про
					цедури 
     741 0412  0030 R                1	Dw offset deskr_Int_code; селектор деск
					риптора в GDT 
     742 0414  00                    1	Db 0; завжди 0 
     743 0415  8F                    1	Db 10001111b ;байт атрибутів - шлюз пас
					тки 
     744 0416  0000                  1	Dw 0; всі процедури розміщуються в перш
					их 64К 
     745 0418  0395                  1	Dw Vector * Proc_int_size; зміщення про
					цедури 
     746 041A  0030 R                1	Dw offset deskr_Int_code; селектор деск
					риптора в GDT 
     747 041C  00                    1	Db 0; завжди 0 
     748 041D  8F                    1	Db 10001111b ;байт атрибутів - шлюз пас
					тки 
     749 041E  0000                  1	Dw 0; всі процедури розміщуються в перш
					их 64К 
     750 0420  039C                  1	Dw Vector * Proc_int_size; зміщення про
					цедури 
     751 0422  0030 R                1	Dw offset deskr_Int_code; селектор деск
					риптора в GDT 
Microsoft (R) Macro Assembler Version 5.00                  1/19/16 21:37:03
                                                             Page     1-25


     752 0424  00                    1	Db 0; завжди 0 
     753 0425  8F                    1	Db 10001111b ;байт атрибутів - шлюз пас
					тки 
     754 0426  0000                  1	Dw 0; всі процедури розміщуються в перш
					их 64К 
     755 0428  03A3                  1	Dw Vector * Proc_int_size; зміщення про
					цедури 
     756 042A  0030 R                1	Dw offset deskr_Int_code; селектор деск
					риптора в GDT 
     757 042C  00                    1	Db 0; завжди 0 
     758 042D  8F                    1	Db 10001111b ;байт атрибутів - шлюз пас
					тки 
     759 042E  0000                  1	Dw 0; всі процедури розміщуються в перш
					их 64К 
     760 0430  03AA                  1	Dw Vector * Proc_int_size; зміщення про
					цедури 
     761 0432  0030 R                1	Dw offset deskr_Int_code; селектор деск
					риптора в GDT 
     762 0434  00                    1	Db 0; завжди 0 
     763 0435  8F                    1	Db 10001111b ;байт атрибутів - шлюз пас
					тки 
     764 0436  0000                  1	Dw 0; всі процедури розміщуються в перш
					их 64К 
     765 0438  03B1                  1	Dw Vector * Proc_int_size; зміщення про
					цедури 
     766 043A  0030 R                1	Dw offset deskr_Int_code; селектор деск
					риптора в GDT 
     767 043C  00                    1	Db 0; завжди 0 
     768 043D  8F                    1	Db 10001111b ;байт атрибутів - шлюз пас
					тки 
     769 043E  0000                  1	Dw 0; всі процедури розміщуються в перш
					их 64К 
     770 0440  03B8                  1	Dw Vector * Proc_int_size; зміщення про
					цедури 
     771 0442  0030 R                1	Dw offset deskr_Int_code; селектор деск
					риптора в GDT 
     772 0444  00                    1	Db 0; завжди 0 
     773 0445  8F                    1	Db 10001111b ;байт атрибутів - шлюз пас
					тки 
     774 0446  0000                  1	Dw 0; всі процедури розміщуються в перш
					их 64К 
     775 0448  03BF                  1	Dw Vector * Proc_int_size; зміщення про
					цедури 
     776 044A  0030 R                1	Dw offset deskr_Int_code; селектор деск
					риптора в GDT 
     777 044C  00                    1	Db 0; завжди 0 
     778 044D  8F                    1	Db 10001111b ;байт атрибутів - шлюз пас
					тки 
     779 044E  0000                  1	Dw 0; всі процедури розміщуються в перш
					их 64К 
     780 0450  03C6                  1	Dw Vector * Proc_int_size; зміщення про
					цедури 
     781 0452  0030 R                1	Dw offset deskr_Int_code; селектор деск
					риптора в GDT 
Microsoft (R) Macro Assembler Version 5.00                  1/19/16 21:37:03
                                                             Page     1-26


     782 0454  00                    1	Db 0; завжди 0 
     783 0455  8F                    1	Db 10001111b ;байт атрибутів - шлюз пас
					тки 
     784 0456  0000                  1	Dw 0; всі процедури розміщуються в перш
					их 64К 
     785 0458  03CD                  1	Dw Vector * Proc_int_size; зміщення про
					цедури 
     786 045A  0030 R                1	Dw offset deskr_Int_code; селектор деск
					риптора в GDT 
     787 045C  00                    1	Db 0; завжди 0 
     788 045D  8F                    1	Db 10001111b ;байт атрибутів - шлюз пас
					тки 
     789 045E  0000                  1	Dw 0; всі процедури розміщуються в перш
					их 64К 
     790 0460  03D4                  1	Dw Vector * Proc_int_size; зміщення про
					цедури 
     791 0462  0030 R                1	Dw offset deskr_Int_code; селектор деск
					риптора в GDT 
     792 0464  00                    1	Db 0; завжди 0 
     793 0465  8F                    1	Db 10001111b ;байт атрибутів - шлюз пас
					тки 
     794 0466  0000                  1	Dw 0; всі процедури розміщуються в перш
					их 64К 
     795 0468  03DB                  1	Dw Vector * Proc_int_size; зміщення про
					цедури 
     796 046A  0030 R                1	Dw offset deskr_Int_code; селектор деск
					риптора в GDT 
     797 046C  00                    1	Db 0; завжди 0 
     798 046D  8F                    1	Db 10001111b ;байт атрибутів - шлюз пас
					тки 
     799 046E  0000                  1	Dw 0; всі процедури розміщуються в перш
					их 64К 
     800 0470  03E2                  1	Dw Vector * Proc_int_size; зміщення про
					цедури 
     801 0472  0030 R                1	Dw offset deskr_Int_code; селектор деск
					риптора в GDT 
     802 0474  00                    1	Db 0; завжди 0 
     803 0475  8F                    1	Db 10001111b ;байт атрибутів - шлюз пас
					тки 
     804 0476  0000                  1	Dw 0; всі процедури розміщуються в перш
					их 64К 
     805 0478  03E9                  1	Dw Vector * Proc_int_size; зміщення про
					цедури 
     806 047A  0030 R                1	Dw offset deskr_Int_code; селектор деск
					риптора в GDT 
     807 047C  00                    1	Db 0; завжди 0 
     808 047D  8F                    1	Db 10001111b ;байт атрибутів - шлюз пас
					тки 
     809 047E  0000                  1	Dw 0; всі процедури розміщуються в перш
					их 64К 
     810 0480  03F0                  1	Dw Vector * Proc_int_size; зміщення про
					цедури 
     811 0482  0030 R                1	Dw offset deskr_Int_code; селектор деск
					риптора в GDT 
Microsoft (R) Macro Assembler Version 5.00                  1/19/16 21:37:03
                                                             Page     1-27


     812 0484  00                    1	Db 0; завжди 0 
     813 0485  8F                    1	Db 10001111b ;байт атрибутів - шлюз пас
					тки 
     814 0486  0000                  1	Dw 0; всі процедури розміщуються в перш
					их 64К 
     815 0488  03F7                  1	Dw Vector * Proc_int_size; зміщення про
					цедури 
     816 048A  0030 R                1	Dw offset deskr_Int_code; селектор деск
					риптора в GDT 
     817 048C  00                    1	Db 0; завжди 0 
     818 048D  8F                    1	Db 10001111b ;байт атрибутів - шлюз пас
					тки 
     819 048E  0000                  1	Dw 0; всі процедури розміщуються в перш
					их 64К 
     820 0490  03FE                  1	Dw Vector * Proc_int_size; зміщення про
					цедури 
     821 0492  0030 R                1	Dw offset deskr_Int_code; селектор деск
					риптора в GDT 
     822 0494  00                    1	Db 0; завжди 0 
     823 0495  8F                    1	Db 10001111b ;байт атрибутів - шлюз пас
					тки 
     824 0496  0000                  1	Dw 0; всі процедури розміщуються в перш
					их 64К 
     825 0498  0405                  1	Dw Vector * Proc_int_size; зміщення про
					цедури 
     826 049A  0030 R                1	Dw offset deskr_Int_code; селектор деск
					риптора в GDT 
     827 049C  00                    1	Db 0; завжди 0 
     828 049D  8F                    1	Db 10001111b ;байт атрибутів - шлюз пас
					тки 
     829 049E  0000                  1	Dw 0; всі процедури розміщуються в перш
					их 64К 
     830 04A0  040C                  1	Dw Vector * Proc_int_size; зміщення про
					цедури 
     831 04A2  0030 R                1	Dw offset deskr_Int_code; селектор деск
					риптора в GDT 
     832 04A4  00                    1	Db 0; завжди 0 
     833 04A5  8F                    1	Db 10001111b ;байт атрибутів - шлюз пас
					тки 
     834 04A6  0000                  1	Dw 0; всі процедури розміщуються в перш
					их 64К 
     835 04A8  0413                  1	Dw Vector * Proc_int_size; зміщення про
					цедури 
     836 04AA  0030 R                1	Dw offset deskr_Int_code; селектор деск
					риптора в GDT 
     837 04AC  00                    1	Db 0; завжди 0 
     838 04AD  8F                    1	Db 10001111b ;байт атрибутів - шлюз пас
					тки 
     839 04AE  0000                  1	Dw 0; всі процедури розміщуються в перш
					их 64К 
     840 04B0  041A                  1	Dw Vector * Proc_int_size; зміщення про
					цедури 
     841 04B2  0030 R                1	Dw offset deskr_Int_code; селектор деск
					риптора в GDT 
Microsoft (R) Macro Assembler Version 5.00                  1/19/16 21:37:03
                                                             Page     1-28


     842 04B4  00                    1	Db 0; завжди 0 
     843 04B5  8F                    1	Db 10001111b ;байт атрибутів - шлюз пас
					тки 
     844 04B6  0000                  1	Dw 0; всі процедури розміщуються в перш
					их 64К 
     845 04B8  0421                  1	Dw Vector * Proc_int_size; зміщення про
					цедури 
     846 04BA  0030 R                1	Dw offset deskr_Int_code; селектор деск
					риптора в GDT 
     847 04BC  00                    1	Db 0; завжди 0 
     848 04BD  8F                    1	Db 10001111b ;байт атрибутів - шлюз пас
					тки 
     849 04BE  0000                  1	Dw 0; всі процедури розміщуються в перш
					их 64К 
     850 04C0  0428                  1	Dw Vector * Proc_int_size; зміщення про
					цедури 
     851 04C2  0030 R                1	Dw offset deskr_Int_code; селектор деск
					риптора в GDT 
     852 04C4  00                    1	Db 0; завжди 0 
     853 04C5  8F                    1	Db 10001111b ;байт атрибутів - шлюз пас
					тки 
     854 04C6  0000                  1	Dw 0; всі процедури розміщуються в перш
					их 64К 
     855 04C8  042F                  1	Dw Vector * Proc_int_size; зміщення про
					цедури 
     856 04CA  0030 R                1	Dw offset deskr_Int_code; селектор деск
					риптора в GDT 
     857 04CC  00                    1	Db 0; завжди 0 
     858 04CD  8F                    1	Db 10001111b ;байт атрибутів - шлюз пас
					тки 
     859 04CE  0000                  1	Dw 0; всі процедури розміщуються в перш
					их 64К 
     860 04D0  0436                  1	Dw Vector * Proc_int_size; зміщення про
					цедури 
     861 04D2  0030 R                1	Dw offset deskr_Int_code; селектор деск
					риптора в GDT 
     862 04D4  00                    1	Db 0; завжди 0 
     863 04D5  8F                    1	Db 10001111b ;байт атрибутів - шлюз пас
					тки 
     864 04D6  0000                  1	Dw 0; всі процедури розміщуються в перш
					их 64К 
     865 04D8  043D                  1	Dw Vector * Proc_int_size; зміщення про
					цедури 
     866 04DA  0030 R                1	Dw offset deskr_Int_code; селектор деск
					риптора в GDT 
     867 04DC  00                    1	Db 0; завжди 0 
     868 04DD  8F                    1	Db 10001111b ;байт атрибутів - шлюз пас
					тки 
     869 04DE  0000                  1	Dw 0; всі процедури розміщуються в перш
					их 64К 
     870 04E0  0444                  1	Dw Vector * Proc_int_size; зміщення про
					цедури 
     871 04E2  0030 R                1	Dw offset deskr_Int_code; селектор деск
					риптора в GDT 
Microsoft (R) Macro Assembler Version 5.00                  1/19/16 21:37:03
                                                             Page     1-29


     872 04E4  00                    1	Db 0; завжди 0 
     873 04E5  8F                    1	Db 10001111b ;байт атрибутів - шлюз пас
					тки 
     874 04E6  0000                  1	Dw 0; всі процедури розміщуються в перш
					их 64К 
     875 04E8  044B                  1	Dw Vector * Proc_int_size; зміщення про
					цедури 
     876 04EA  0030 R                1	Dw offset deskr_Int_code; селектор деск
					риптора в GDT 
     877 04EC  00                    1	Db 0; завжди 0 
     878 04ED  8F                    1	Db 10001111b ;байт атрибутів - шлюз пас
					тки 
     879 04EE  0000                  1	Dw 0; всі процедури розміщуються в перш
					их 64К 
     880 04F0  0452                  1	Dw Vector * Proc_int_size; зміщення про
					цедури 
     881 04F2  0030 R                1	Dw offset deskr_Int_code; селектор деск
					риптора в GDT 
     882 04F4  00                    1	Db 0; завжди 0 
     883 04F5  8F                    1	Db 10001111b ;байт атрибутів - шлюз пас
					тки 
     884 04F6  0000                  1	Dw 0; всі процедури розміщуються в перш
					их 64К 
     885 04F8  0459                  1	Dw Vector * Proc_int_size; зміщення про
					цедури 
     886 04FA  0030 R                1	Dw offset deskr_Int_code; селектор деск
					риптора в GDT 
     887 04FC  00                    1	Db 0; завжди 0 
     888 04FD  8F                    1	Db 10001111b ;байт атрибутів - шлюз пас
					тки 
     889 04FE  0000                  1	Dw 0; всі процедури розміщуються в перш
					их 64К 
     890 0500  0460                  1	Dw Vector * Proc_int_size; зміщення про
					цедури 
     891 0502  0030 R                1	Dw offset deskr_Int_code; селектор деск
					риптора в GDT 
     892 0504  00                    1	Db 0; завжди 0 
     893 0505  8F                    1	Db 10001111b ;байт атрибутів - шлюз пас
					тки 
     894 0506  0000                  1	Dw 0; всі процедури розміщуються в перш
					их 64К 
     895 0508  0467                  1	Dw Vector * Proc_int_size; зміщення про
					цедури 
     896 050A  0030 R                1	Dw offset deskr_Int_code; селектор деск
					риптора в GDT 
     897 050C  00                    1	Db 0; завжди 0 
     898 050D  8F                    1	Db 10001111b ;байт атрибутів - шлюз пас
					тки 
     899 050E  0000                  1	Dw 0; всі процедури розміщуються в перш
					их 64К 
     900 0510  046E                  1	Dw Vector * Proc_int_size; зміщення про
					цедури 
     901 0512  0030 R                1	Dw offset deskr_Int_code; селектор деск
					риптора в GDT 
Microsoft (R) Macro Assembler Version 5.00                  1/19/16 21:37:03
                                                             Page     1-30


     902 0514  00                    1	Db 0; завжди 0 
     903 0515  8F                    1	Db 10001111b ;байт атрибутів - шлюз пас
					тки 
     904 0516  0000                  1	Dw 0; всі процедури розміщуються в перш
					их 64К 
     905 0518  0475                  1	Dw Vector * Proc_int_size; зміщення про
					цедури 
     906 051A  0030 R                1	Dw offset deskr_Int_code; селектор деск
					риптора в GDT 
     907 051C  00                    1	Db 0; завжди 0 
     908 051D  8F                    1	Db 10001111b ;байт атрибутів - шлюз пас
					тки 
     909 051E  0000                  1	Dw 0; всі процедури розміщуються в перш
					их 64К 
     910 0520  047C                  1	Dw Vector * Proc_int_size; зміщення про
					цедури 
     911 0522  0030 R                1	Dw offset deskr_Int_code; селектор деск
					риптора в GDT 
     912 0524  00                    1	Db 0; завжди 0 
     913 0525  8F                    1	Db 10001111b ;байт атрибутів - шлюз пас
					тки 
     914 0526  0000                  1	Dw 0; всі процедури розміщуються в перш
					их 64К 
     915 0528  0483                  1	Dw Vector * Proc_int_size; зміщення про
					цедури 
     916 052A  0030 R                1	Dw offset deskr_Int_code; селектор деск
					риптора в GDT 
     917 052C  00                    1	Db 0; завжди 0 
     918 052D  8F                    1	Db 10001111b ;байт атрибутів - шлюз пас
					тки 
     919 052E  0000                  1	Dw 0; всі процедури розміщуються в перш
					их 64К 
     920 0530  048A                  1	Dw Vector * Proc_int_size; зміщення про
					цедури 
     921 0532  0030 R                1	Dw offset deskr_Int_code; селектор деск
					риптора в GDT 
     922 0534  00                    1	Db 0; завжди 0 
     923 0535  8F                    1	Db 10001111b ;байт атрибутів - шлюз пас
					тки 
     924 0536  0000                  1	Dw 0; всі процедури розміщуються в перш
					их 64К 
     925 0538  0491                  1	Dw Vector * Proc_int_size; зміщення про
					цедури 
     926 053A  0030 R                1	Dw offset deskr_Int_code; селектор деск
					риптора в GDT 
     927 053C  00                    1	Db 0; завжди 0 
     928 053D  8F                    1	Db 10001111b ;байт атрибутів - шлюз пас
					тки 
     929 053E  0000                  1	Dw 0; всі процедури розміщуються в перш
					их 64К 
     930 0540  0498                  1	Dw Vector * Proc_int_size; зміщення про
					цедури 
     931 0542  0030 R                1	Dw offset deskr_Int_code; селектор деск
					риптора в GDT 
Microsoft (R) Macro Assembler Version 5.00                  1/19/16 21:37:03
                                                             Page     1-31


     932 0544  00                    1	Db 0; завжди 0 
     933 0545  8F                    1	Db 10001111b ;байт атрибутів - шлюз пас
					тки 
     934 0546  0000                  1	Dw 0; всі процедури розміщуються в перш
					их 64К 
     935 0548  049F                  1	Dw Vector * Proc_int_size; зміщення про
					цедури 
     936 054A  0030 R                1	Dw offset deskr_Int_code; селектор деск
					риптора в GDT 
     937 054C  00                    1	Db 0; завжди 0 
     938 054D  8F                    1	Db 10001111b ;байт атрибутів - шлюз пас
					тки 
     939 054E  0000                  1	Dw 0; всі процедури розміщуються в перш
					их 64К 
     940 0550  04A6                  1	Dw Vector * Proc_int_size; зміщення про
					цедури 
     941 0552  0030 R                1	Dw offset deskr_Int_code; селектор деск
					риптора в GDT 
     942 0554  00                    1	Db 0; завжди 0 
     943 0555  8F                    1	Db 10001111b ;байт атрибутів - шлюз пас
					тки 
     944 0556  0000                  1	Dw 0; всі процедури розміщуються в перш
					их 64К 
     945 0558  04AD                  1	Dw Vector * Proc_int_size; зміщення про
					цедури 
     946 055A  0030 R                1	Dw offset deskr_Int_code; селектор деск
					риптора в GDT 
     947 055C  00                    1	Db 0; завжди 0 
     948 055D  8F                    1	Db 10001111b ;байт атрибутів - шлюз пас
					тки 
     949 055E  0000                  1	Dw 0; всі процедури розміщуються в перш
					их 64К 
     950 0560  04B4                  1	Dw Vector * Proc_int_size; зміщення про
					цедури 
     951 0562  0030 R                1	Dw offset deskr_Int_code; селектор деск
					риптора в GDT 
     952 0564  00                    1	Db 0; завжди 0 
     953 0565  8F                    1	Db 10001111b ;байт атрибутів - шлюз пас
					тки 
     954 0566  0000                  1	Dw 0; всі процедури розміщуються в перш
					их 64К 
     955 0568  04BB                  1	Dw Vector * Proc_int_size; зміщення про
					цедури 
     956 056A  0030 R                1	Dw offset deskr_Int_code; селектор деск
					риптора в GDT 
     957 056C  00                    1	Db 0; завжди 0 
     958 056D  8F                    1	Db 10001111b ;байт атрибутів - шлюз пас
					тки 
     959 056E  0000                  1	Dw 0; всі процедури розміщуються в перш
					их 64К 
     960 0570  04C2                  1	Dw Vector * Proc_int_size; зміщення про
					цедури 
     961 0572  0030 R                1	Dw offset deskr_Int_code; селектор деск
					риптора в GDT 
Microsoft (R) Macro Assembler Version 5.00                  1/19/16 21:37:03
                                                             Page     1-32


     962 0574  00                    1	Db 0; завжди 0 
     963 0575  8F                    1	Db 10001111b ;байт атрибутів - шлюз пас
					тки 
     964 0576  0000                  1	Dw 0; всі процедури розміщуються в перш
					их 64К 
     965 0578  04C9                  1	Dw Vector * Proc_int_size; зміщення про
					цедури 
     966 057A  0030 R                1	Dw offset deskr_Int_code; селектор деск
					риптора в GDT 
     967 057C  00                    1	Db 0; завжди 0 
     968 057D  8F                    1	Db 10001111b ;байт атрибутів - шлюз пас
					тки 
     969 057E  0000                  1	Dw 0; всі процедури розміщуються в перш
					их 64К 
     970 0580  04D0                  1	Dw Vector * Proc_int_size; зміщення про
					цедури 
     971 0582  0030 R                1	Dw offset deskr_Int_code; селектор деск
					риптора в GDT 
     972 0584  00                    1	Db 0; завжди 0 
     973 0585  8F                    1	Db 10001111b ;байт атрибутів - шлюз пас
					тки 
     974 0586  0000                  1	Dw 0; всі процедури розміщуються в перш
					их 64К 
     975 0588  04D7                  1	Dw Vector * Proc_int_size; зміщення про
					цедури 
     976 058A  0030 R                1	Dw offset deskr_Int_code; селектор деск
					риптора в GDT 
     977 058C  00                    1	Db 0; завжди 0 
     978 058D  8F                    1	Db 10001111b ;байт атрибутів - шлюз пас
					тки 
     979 058E  0000                  1	Dw 0; всі процедури розміщуються в перш
					их 64К 
     980 0590  04DE                  1	Dw Vector * Proc_int_size; зміщення про
					цедури 
     981 0592  0030 R                1	Dw offset deskr_Int_code; селектор деск
					риптора в GDT 
     982 0594  00                    1	Db 0; завжди 0 
     983 0595  8F                    1	Db 10001111b ;байт атрибутів - шлюз пас
					тки 
     984 0596  0000                  1	Dw 0; всі процедури розміщуються в перш
					их 64К 
     985 0598  04E5                  1	Dw Vector * Proc_int_size; зміщення про
					цедури 
     986 059A  0030 R                1	Dw offset deskr_Int_code; селектор деск
					риптора в GDT 
     987 059C  00                    1	Db 0; завжди 0 
     988 059D  8F                    1	Db 10001111b ;байт атрибутів - шлюз пас
					тки 
     989 059E  0000                  1	Dw 0; всі процедури розміщуються в перш
					их 64К 
     990 05A0  04EC                  1	Dw Vector * Proc_int_size; зміщення про
					цедури 
     991 05A2  0030 R                1	Dw offset deskr_Int_code; селектор деск
					риптора в GDT 
Microsoft (R) Macro Assembler Version 5.00                  1/19/16 21:37:03
                                                             Page     1-33


     992 05A4  00                    1	Db 0; завжди 0 
     993 05A5  8F                    1	Db 10001111b ;байт атрибутів - шлюз пас
					тки 
     994 05A6  0000                  1	Dw 0; всі процедури розміщуються в перш
					их 64К 
     995 05A8  04F3                  1	Dw Vector * Proc_int_size; зміщення про
					цедури 
     996 05AA  0030 R                1	Dw offset deskr_Int_code; селектор деск
					риптора в GDT 
     997 05AC  00                    1	Db 0; завжди 0 
     998 05AD  8F                    1	Db 10001111b ;байт атрибутів - шлюз пас
					тки 
     999 05AE  0000                  1	Dw 0; всі процедури розміщуються в перш
					их 64К 
    1000 05B0  04FA                  1	Dw Vector * Proc_int_size; зміщення про
					цедури 
    1001 05B2  0030 R                1	Dw offset deskr_Int_code; селектор деск
					риптора в GDT 
    1002 05B4  00                    1	Db 0; завжди 0 
    1003 05B5  8F                    1	Db 10001111b ;байт атрибутів - шлюз пас
					тки 
    1004 05B6  0000                  1	Dw 0; всі процедури розміщуються в перш
					их 64К 
    1005 05B8  0501                  1	Dw Vector * Proc_int_size; зміщення про
					цедури 
    1006 05BA  0030 R                1	Dw offset deskr_Int_code; селектор деск
					риптора в GDT 
    1007 05BC  00                    1	Db 0; завжди 0 
    1008 05BD  8F                    1	Db 10001111b ;байт атрибутів - шлюз пас
					тки 
    1009 05BE  0000                  1	Dw 0; всі процедури розміщуються в перш
					их 64К 
    1010 05C0  0508                  1	Dw Vector * Proc_int_size; зміщення про
					цедури 
    1011 05C2  0030 R                1	Dw offset deskr_Int_code; селектор деск
					риптора в GDT 
    1012 05C4  00                    1	Db 0; завжди 0 
    1013 05C5  8F                    1	Db 10001111b ;байт атрибутів - шлюз пас
					тки 
    1014 05C6  0000                  1	Dw 0; всі процедури розміщуються в перш
					их 64К 
    1015 05C8  050F                  1	Dw Vector * Proc_int_size; зміщення про
					цедури 
    1016 05CA  0030 R                1	Dw offset deskr_Int_code; селектор деск
					риптора в GDT 
    1017 05CC  00                    1	Db 0; завжди 0 
    1018 05CD  8F                    1	Db 10001111b ;байт атрибутів - шлюз пас
					тки 
    1019 05CE  0000                  1	Dw 0; всі процедури розміщуються в перш
					их 64К 
    1020 05D0  0516                  1	Dw Vector * Proc_int_size; зміщення про
					цедури 
    1021 05D2  0030 R                1	Dw offset deskr_Int_code; селектор деск
					риптора в GDT 
Microsoft (R) Macro Assembler Version 5.00                  1/19/16 21:37:03
                                                             Page     1-34


    1022 05D4  00                    1	Db 0; завжди 0 
    1023 05D5  8F                    1	Db 10001111b ;байт атрибутів - шлюз пас
					тки 
    1024 05D6  0000                  1	Dw 0; всі процедури розміщуються в перш
					их 64К 
    1025 05D8  051D                  1	Dw Vector * Proc_int_size; зміщення про
					цедури 
    1026 05DA  0030 R                1	Dw offset deskr_Int_code; селектор деск
					риптора в GDT 
    1027 05DC  00                    1	Db 0; завжди 0 
    1028 05DD  8F                    1	Db 10001111b ;байт атрибутів - шлюз пас
					тки 
    1029 05DE  0000                  1	Dw 0; всі процедури розміщуються в перш
					их 64К 
    1030 05E0  0524                  1	Dw Vector * Proc_int_size; зміщення про
					цедури 
    1031 05E2  0030 R                1	Dw offset deskr_Int_code; селектор деск
					риптора в GDT 
    1032 05E4  00                    1	Db 0; завжди 0 
    1033 05E5  8F                    1	Db 10001111b ;байт атрибутів - шлюз пас
					тки 
    1034 05E6  0000                  1	Dw 0; всі процедури розміщуються в перш
					их 64К 
    1035 05E8  052B                  1	Dw Vector * Proc_int_size; зміщення про
					цедури 
    1036 05EA  0030 R                1	Dw offset deskr_Int_code; селектор деск
					риптора в GDT 
    1037 05EC  00                    1	Db 0; завжди 0 
    1038 05ED  8F                    1	Db 10001111b ;байт атрибутів - шлюз пас
					тки 
    1039 05EE  0000                  1	Dw 0; всі процедури розміщуються в перш
					их 64К 
    1040 05F0  0532                  1	Dw Vector * Proc_int_size; зміщення про
					цедури 
    1041 05F2  0030 R                1	Dw offset deskr_Int_code; селектор деск
					риптора в GDT 
    1042 05F4  00                    1	Db 0; завжди 0 
    1043 05F5  8F                    1	Db 10001111b ;байт атрибутів - шлюз пас
					тки 
    1044 05F6  0000                  1	Dw 0; всі процедури розміщуються в перш
					их 64К 
    1045 05F8  0539                  1	Dw Vector * Proc_int_size; зміщення про
					цедури 
    1046 05FA  0030 R                1	Dw offset deskr_Int_code; селектор деск
					риптора в GDT 
    1047 05FC  00                    1	Db 0; завжди 0 
    1048 05FD  8F                    1	Db 10001111b ;байт атрибутів - шлюз пас
					тки 
    1049 05FE  0000                  1	Dw 0; всі процедури розміщуються в перш
					их 64К 
    1050 0600  0540                  1	Dw Vector * Proc_int_size; зміщення про
					цедури 
    1051 0602  0030 R                1	Dw offset deskr_Int_code; селектор деск
					риптора в GDT 
Microsoft (R) Macro Assembler Version 5.00                  1/19/16 21:37:03
                                                             Page     1-35


    1052 0604  00                    1	Db 0; завжди 0 
    1053 0605  8F                    1	Db 10001111b ;байт атрибутів - шлюз пас
					тки 
    1054 0606  0000                  1	Dw 0; всі процедури розміщуються в перш
					их 64К 
    1055 0608  0547                  1	Dw Vector * Proc_int_size; зміщення про
					цедури 
    1056 060A  0030 R                1	Dw offset deskr_Int_code; селектор деск
					риптора в GDT 
    1057 060C  00                    1	Db 0; завжди 0 
    1058 060D  8F                    1	Db 10001111b ;байт атрибутів - шлюз пас
					тки 
    1059 060E  0000                  1	Dw 0; всі процедури розміщуються в перш
					их 64К 
    1060 0610  054E                  1	Dw Vector * Proc_int_size; зміщення про
					цедури 
    1061 0612  0030 R                1	Dw offset deskr_Int_code; селектор деск
					риптора в GDT 
    1062 0614  00                    1	Db 0; завжди 0 
    1063 0615  8F                    1	Db 10001111b ;байт атрибутів - шлюз пас
					тки 
    1064 0616  0000                  1	Dw 0; всі процедури розміщуються в перш
					их 64К 
    1065 0618  0555                  1	Dw Vector * Proc_int_size; зміщення про
					цедури 
    1066 061A  0030 R                1	Dw offset deskr_Int_code; селектор деск
					риптора в GDT 
    1067 061C  00                    1	Db 0; завжди 0 
    1068 061D  8F                    1	Db 10001111b ;байт атрибутів - шлюз пас
					тки 
    1069 061E  0000                  1	Dw 0; всі процедури розміщуються в перш
					их 64К 
    1070 0620  055C                  1	Dw Vector * Proc_int_size; зміщення про
					цедури 
    1071 0622  0030 R                1	Dw offset deskr_Int_code; селектор деск
					риптора в GDT 
    1072 0624  00                    1	Db 0; завжди 0 
    1073 0625  8F                    1	Db 10001111b ;байт атрибутів - шлюз пас
					тки 
    1074 0626  0000                  1	Dw 0; всі процедури розміщуються в перш
					их 64К 
    1075 0628  0563                  1	Dw Vector * Proc_int_size; зміщення про
					цедури 
    1076 062A  0030 R                1	Dw offset deskr_Int_code; селектор деск
					риптора в GDT 
    1077 062C  00                    1	Db 0; завжди 0 
    1078 062D  8F                    1	Db 10001111b ;байт атрибутів - шлюз пас
					тки 
    1079 062E  0000                  1	Dw 0; всі процедури розміщуються в перш
					их 64К 
    1080 0630  056A                  1	Dw Vector * Proc_int_size; зміщення про
					цедури 
    1081 0632  0030 R                1	Dw offset deskr_Int_code; селектор деск
					риптора в GDT 
Microsoft (R) Macro Assembler Version 5.00                  1/19/16 21:37:03
                                                             Page     1-36


    1082 0634  00                    1	Db 0; завжди 0 
    1083 0635  8F                    1	Db 10001111b ;байт атрибутів - шлюз пас
					тки 
    1084 0636  0000                  1	Dw 0; всі процедури розміщуються в перш
					их 64К 
    1085 0638  0571                  1	Dw Vector * Proc_int_size; зміщення про
					цедури 
    1086 063A  0030 R                1	Dw offset deskr_Int_code; селектор деск
					риптора в GDT 
    1087 063C  00                    1	Db 0; завжди 0 
    1088 063D  8F                    1	Db 10001111b ;байт атрибутів - шлюз пас
					тки 
    1089 063E  0000                  1	Dw 0; всі процедури розміщуються в перш
					их 64К 
    1090 0640  0578                  1	Dw Vector * Proc_int_size; зміщення про
					цедури 
    1091 0642  0030 R                1	Dw offset deskr_Int_code; селектор деск
					риптора в GDT 
    1092 0644  00                    1	Db 0; завжди 0 
    1093 0645  8F                    1	Db 10001111b ;байт атрибутів - шлюз пас
					тки 
    1094 0646  0000                  1	Dw 0; всі процедури розміщуються в перш
					их 64К 
    1095 0648  057F                  1	Dw Vector * Proc_int_size; зміщення про
					цедури 
    1096 064A  0030 R                1	Dw offset deskr_Int_code; селектор деск
					риптора в GDT 
    1097 064C  00                    1	Db 0; завжди 0 
    1098 064D  8F                    1	Db 10001111b ;байт атрибутів - шлюз пас
					тки 
    1099 064E  0000                  1	Dw 0; всі процедури розміщуються в перш
					их 64К 
    1100 0650  0586                  1	Dw Vector * Proc_int_size; зміщення про
					цедури 
    1101 0652  0030 R                1	Dw offset deskr_Int_code; селектор деск
					риптора в GDT 
    1102 0654  00                    1	Db 0; завжди 0 
    1103 0655  8F                    1	Db 10001111b ;байт атрибутів - шлюз пас
					тки 
    1104 0656  0000                  1	Dw 0; всі процедури розміщуються в перш
					их 64К 
    1105 0658  058D                  1	Dw Vector * Proc_int_size; зміщення про
					цедури 
    1106 065A  0030 R                1	Dw offset deskr_Int_code; селектор деск
					риптора в GDT 
    1107 065C  00                    1	Db 0; завжди 0 
    1108 065D  8F                    1	Db 10001111b ;байт атрибутів - шлюз пас
					тки 
    1109 065E  0000                  1	Dw 0; всі процедури розміщуються в перш
					их 64К 
    1110 0660  0594                  1	Dw Vector * Proc_int_size; зміщення про
					цедури 
    1111 0662  0030 R                1	Dw offset deskr_Int_code; селектор деск
					риптора в GDT 
Microsoft (R) Macro Assembler Version 5.00                  1/19/16 21:37:03
                                                             Page     1-37


    1112 0664  00                    1	Db 0; завжди 0 
    1113 0665  8F                    1	Db 10001111b ;байт атрибутів - шлюз пас
					тки 
    1114 0666  0000                  1	Dw 0; всі процедури розміщуються в перш
					их 64К 
    1115 0668  059B                  1	Dw Vector * Proc_int_size; зміщення про
					цедури 
    1116 066A  0030 R                1	Dw offset deskr_Int_code; селектор деск
					риптора в GDT 
    1117 066C  00                    1	Db 0; завжди 0 
    1118 066D  8F                    1	Db 10001111b ;байт атрибутів - шлюз пас
					тки 
    1119 066E  0000                  1	Dw 0; всі процедури розміщуються в перш
					их 64К 
    1120 0670  05A2                  1	Dw Vector * Proc_int_size; зміщення про
					цедури 
    1121 0672  0030 R                1	Dw offset deskr_Int_code; селектор деск
					риптора в GDT 
    1122 0674  00                    1	Db 0; завжди 0 
    1123 0675  8F                    1	Db 10001111b ;байт атрибутів - шлюз пас
					тки 
    1124 0676  0000                  1	Dw 0; всі процедури розміщуються в перш
					их 64К 
    1125 0678  05A9                  1	Dw Vector * Proc_int_size; зміщення про
					цедури 
    1126 067A  0030 R                1	Dw offset deskr_Int_code; селектор деск
					риптора в GDT 
    1127 067C  00                    1	Db 0; завжди 0 
    1128 067D  8F                    1	Db 10001111b ;байт атрибутів - шлюз пас
					тки 
    1129 067E  0000                  1	Dw 0; всі процедури розміщуються в перш
					их 64К 
    1130 0680  05B0                  1	Dw Vector * Proc_int_size; зміщення про
					цедури 
    1131 0682  0030 R                1	Dw offset deskr_Int_code; селектор деск
					риптора в GDT 
    1132 0684  00                    1	Db 0; завжди 0 
    1133 0685  8F                    1	Db 10001111b ;байт атрибутів - шлюз пас
					тки 
    1134 0686  0000                  1	Dw 0; всі процедури розміщуються в перш
					их 64К 
    1135 0688  05B7                  1	Dw Vector * Proc_int_size; зміщення про
					цедури 
    1136 068A  0030 R                1	Dw offset deskr_Int_code; селектор деск
					риптора в GDT 
    1137 068C  00                    1	Db 0; завжди 0 
    1138 068D  8F                    1	Db 10001111b ;байт атрибутів - шлюз пас
					тки 
    1139 068E  0000                  1	Dw 0; всі процедури розміщуються в перш
					их 64К 
    1140 0690  05BE                  1	Dw Vector * Proc_int_size; зміщення про
					цедури 
    1141 0692  0030 R                1	Dw offset deskr_Int_code; селектор деск
					риптора в GDT 
Microsoft (R) Macro Assembler Version 5.00                  1/19/16 21:37:03
                                                             Page     1-38


    1142 0694  00                    1	Db 0; завжди 0 
    1143 0695  8F                    1	Db 10001111b ;байт атрибутів - шлюз пас
					тки 
    1144 0696  0000                  1	Dw 0; всі процедури розміщуються в перш
					их 64К 
    1145 0698  05C5                  1	Dw Vector * Proc_int_size; зміщення про
					цедури 
    1146 069A  0030 R                1	Dw offset deskr_Int_code; селектор деск
					риптора в GDT 
    1147 069C  00                    1	Db 0; завжди 0 
    1148 069D  8F                    1	Db 10001111b ;байт атрибутів - шлюз пас
					тки 
    1149 069E  0000                  1	Dw 0; всі процедури розміщуються в перш
					их 64К 
    1150 06A0  05CC                  1	Dw Vector * Proc_int_size; зміщення про
					цедури 
    1151 06A2  0030 R                1	Dw offset deskr_Int_code; селектор деск
					риптора в GDT 
    1152 06A4  00                    1	Db 0; завжди 0 
    1153 06A5  8F                    1	Db 10001111b ;байт атрибутів - шлюз пас
					тки 
    1154 06A6  0000                  1	Dw 0; всі процедури розміщуються в перш
					их 64К 
    1155 06A8  05D3                  1	Dw Vector * Proc_int_size; зміщення про
					цедури 
    1156 06AA  0030 R                1	Dw offset deskr_Int_code; селектор деск
					риптора в GDT 
    1157 06AC  00                    1	Db 0; завжди 0 
    1158 06AD  8F                    1	Db 10001111b ;байт атрибутів - шлюз пас
					тки 
    1159 06AE  0000                  1	Dw 0; всі процедури розміщуються в перш
					их 64К 
    1160 06B0  05DA                  1	Dw Vector * Proc_int_size; зміщення про
					цедури 
    1161 06B2  0030 R                1	Dw offset deskr_Int_code; селектор деск
					риптора в GDT 
    1162 06B4  00                    1	Db 0; завжди 0 
    1163 06B5  8F                    1	Db 10001111b ;байт атрибутів - шлюз пас
					тки 
    1164 06B6  0000                  1	Dw 0; всі процедури розміщуються в перш
					их 64К 
    1165 06B8  05E1                  1	Dw Vector * Proc_int_size; зміщення про
					цедури 
    1166 06BA  0030 R                1	Dw offset deskr_Int_code; селектор деск
					риптора в GDT 
    1167 06BC  00                    1	Db 0; завжди 0 
    1168 06BD  8F                    1	Db 10001111b ;байт атрибутів - шлюз пас
					тки 
    1169 06BE  0000                  1	Dw 0; всі процедури розміщуються в перш
					их 64К 
    1170 06C0  05E8                  1	Dw Vector * Proc_int_size; зміщення про
					цедури 
    1171 06C2  0030 R                1	Dw offset deskr_Int_code; селектор деск
					риптора в GDT 
Microsoft (R) Macro Assembler Version 5.00                  1/19/16 21:37:03
                                                             Page     1-39


    1172 06C4  00                    1	Db 0; завжди 0 
    1173 06C5  8F                    1	Db 10001111b ;байт атрибутів - шлюз пас
					тки 
    1174 06C6  0000                  1	Dw 0; всі процедури розміщуються в перш
					их 64К 
    1175 06C8  05EF                  1	Dw Vector * Proc_int_size; зміщення про
					цедури 
    1176 06CA  0030 R                1	Dw offset deskr_Int_code; селектор деск
					риптора в GDT 
    1177 06CC  00                    1	Db 0; завжди 0 
    1178 06CD  8F                    1	Db 10001111b ;байт атрибутів - шлюз пас
					тки 
    1179 06CE  0000                  1	Dw 0; всі процедури розміщуються в перш
					их 64К 
    1180 06D0  05F6                  1	Dw Vector * Proc_int_size; зміщення про
					цедури 
    1181 06D2  0030 R                1	Dw offset deskr_Int_code; селектор деск
					риптора в GDT 
    1182 06D4  00                    1	Db 0; завжди 0 
    1183 06D5  8F                    1	Db 10001111b ;байт атрибутів - шлюз пас
					тки 
    1184 06D6  0000                  1	Dw 0; всі процедури розміщуються в перш
					их 64К 
    1185 06D8  05FD                  1	Dw Vector * Proc_int_size; зміщення про
					цедури 
    1186 06DA  0030 R                1	Dw offset deskr_Int_code; селектор деск
					риптора в GDT 
    1187 06DC  00                    1	Db 0; завжди 0 
    1188 06DD  8F                    1	Db 10001111b ;байт атрибутів - шлюз пас
					тки 
    1189 06DE  0000                  1	Dw 0; всі процедури розміщуються в перш
					их 64К 
    1190 06E0  0604                  1	Dw Vector * Proc_int_size; зміщення про
					цедури 
    1191 06E2  0030 R                1	Dw offset deskr_Int_code; селектор деск
					риптора в GDT 
    1192 06E4  00                    1	Db 0; завжди 0 
    1193 06E5  8F                    1	Db 10001111b ;байт атрибутів - шлюз пас
					тки 
    1194 06E6  0000                  1	Dw 0; всі процедури розміщуються в перш
					их 64К 
    1195 06E8  060B                  1	Dw Vector * Proc_int_size; зміщення про
					цедури 
    1196 06EA  0030 R                1	Dw offset deskr_Int_code; селектор деск
					риптора в GDT 
    1197 06EC  00                    1	Db 0; завжди 0 
    1198 06ED  8F                    1	Db 10001111b ;байт атрибутів - шлюз пас
					тки 
    1199 06EE  0000                  1	Dw 0; всі процедури розміщуються в перш
					их 64К 
    1200 06F0  0612                  1	Dw Vector * Proc_int_size; зміщення про
					цедури 
    1201 06F2  0030 R                1	Dw offset deskr_Int_code; селектор деск
					риптора в GDT 
Microsoft (R) Macro Assembler Version 5.00                  1/19/16 21:37:03
                                                             Page     1-40


    1202 06F4  00                    1	Db 0; завжди 0 
    1203 06F5  8F                    1	Db 10001111b ;байт атрибутів - шлюз пас
					тки 
    1204 06F6  0000                  1	Dw 0; всі процедури розміщуються в перш
					их 64К 
    1205 06F8  0619                  1	Dw Vector * Proc_int_size; зміщення про
					цедури 
    1206 06FA  0030 R                1	Dw offset deskr_Int_code; селектор деск
					риптора в GDT 
    1207 06FC  00                    1	Db 0; завжди 0 
    1208 06FD  8F                    1	Db 10001111b ;байт атрибутів - шлюз пас
					тки 
    1209 06FE  0000                  1	Dw 0; всі процедури розміщуються в перш
					их 64К 
    1210 0700  0620                  1	Dw Vector * Proc_int_size; зміщення про
					цедури 
    1211 0702  0030 R                1	Dw offset deskr_Int_code; селектор деск
					риптора в GDT 
    1212 0704  00                    1	Db 0; завжди 0 
    1213 0705  8F                    1	Db 10001111b ;байт атрибутів - шлюз пас
					тки 
    1214 0706  0000                  1	Dw 0; всі процедури розміщуються в перш
					их 64К 
    1215 0708  0627                  1	Dw Vector * Proc_int_size; зміщення про
					цедури 
    1216 070A  0030 R                1	Dw offset deskr_Int_code; селектор деск
					риптора в GDT 
    1217 070C  00                    1	Db 0; завжди 0 
    1218 070D  8F                    1	Db 10001111b ;байт атрибутів - шлюз пас
					тки 
    1219 070E  0000                  1	Dw 0; всі процедури розміщуються в перш
					их 64К 
    1220 0710  062E                  1	Dw Vector * Proc_int_size; зміщення про
					цедури 
    1221 0712  0030 R                1	Dw offset deskr_Int_code; селектор деск
					риптора в GDT 
    1222 0714  00                    1	Db 0; завжди 0 
    1223 0715  8F                    1	Db 10001111b ;байт атрибутів - шлюз пас
					тки 
    1224 0716  0000                  1	Dw 0; всі процедури розміщуються в перш
					их 64К 
    1225 0718  0635                  1	Dw Vector * Proc_int_size; зміщення про
					цедури 
    1226 071A  0030 R                1	Dw offset deskr_Int_code; селектор деск
					риптора в GDT 
    1227 071C  00                    1	Db 0; завжди 0 
    1228 071D  8F                    1	Db 10001111b ;байт атрибутів - шлюз пас
					тки 
    1229 071E  0000                  1	Dw 0; всі процедури розміщуються в перш
					их 64К 
    1230 0720  063C                  1	Dw Vector * Proc_int_size; зміщення про
					цедури 
    1231 0722  0030 R                1	Dw offset deskr_Int_code; селектор деск
					риптора в GDT 
Microsoft (R) Macro Assembler Version 5.00                  1/19/16 21:37:03
                                                             Page     1-41


    1232 0724  00                    1	Db 0; завжди 0 
    1233 0725  8F                    1	Db 10001111b ;байт атрибутів - шлюз пас
					тки 
    1234 0726  0000                  1	Dw 0; всі процедури розміщуються в перш
					их 64К 
    1235 0728  0643                  1	Dw Vector * Proc_int_size; зміщення про
					цедури 
    1236 072A  0030 R                1	Dw offset deskr_Int_code; селектор деск
					риптора в GDT 
    1237 072C  00                    1	Db 0; завжди 0 
    1238 072D  8F                    1	Db 10001111b ;байт атрибутів - шлюз пас
					тки 
    1239 072E  0000                  1	Dw 0; всі процедури розміщуються в перш
					их 64К 
    1240 0730  064A                  1	Dw Vector * Proc_int_size; зміщення про
					цедури 
    1241 0732  0030 R                1	Dw offset deskr_Int_code; селектор деск
					риптора в GDT 
    1242 0734  00                    1	Db 0; завжди 0 
    1243 0735  8F                    1	Db 10001111b ;байт атрибутів - шлюз пас
					тки 
    1244 0736  0000                  1	Dw 0; всі процедури розміщуються в перш
					их 64К 
    1245 0738  0651                  1	Dw Vector * Proc_int_size; зміщення про
					цедури 
    1246 073A  0030 R                1	Dw offset deskr_Int_code; селектор деск
					риптора в GDT 
    1247 073C  00                    1	Db 0; завжди 0 
    1248 073D  8F                    1	Db 10001111b ;байт атрибутів - шлюз пас
					тки 
    1249 073E  0000                  1	Dw 0; всі процедури розміщуються в перш
					их 64К 
    1250 0740  0658                  1	Dw Vector * Proc_int_size; зміщення про
					цедури 
    1251 0742  0030 R                1	Dw offset deskr_Int_code; селектор деск
					риптора в GDT 
    1252 0744  00                    1	Db 0; завжди 0 
    1253 0745  8F                    1	Db 10001111b ;байт атрибутів - шлюз пас
					тки 
    1254 0746  0000                  1	Dw 0; всі процедури розміщуються в перш
					их 64К 
    1255 0748  065F                  1	Dw Vector * Proc_int_size; зміщення про
					цедури 
    1256 074A  0030 R                1	Dw offset deskr_Int_code; селектор деск
					риптора в GDT 
    1257 074C  00                    1	Db 0; завжди 0 
    1258 074D  8F                    1	Db 10001111b ;байт атрибутів - шлюз пас
					тки 
    1259 074E  0000                  1	Dw 0; всі процедури розміщуються в перш
					их 64К 
    1260 0750  0666                  1	Dw Vector * Proc_int_size; зміщення про
					цедури 
    1261 0752  0030 R                1	Dw offset deskr_Int_code; селектор деск
					риптора в GDT 
Microsoft (R) Macro Assembler Version 5.00                  1/19/16 21:37:03
                                                             Page     1-42


    1262 0754  00                    1	Db 0; завжди 0 
    1263 0755  8F                    1	Db 10001111b ;байт атрибутів - шлюз пас
					тки 
    1264 0756  0000                  1	Dw 0; всі процедури розміщуються в перш
					их 64К 
    1265 0758  066D                  1	Dw Vector * Proc_int_size; зміщення про
					цедури 
    1266 075A  0030 R                1	Dw offset deskr_Int_code; селектор деск
					риптора в GDT 
    1267 075C  00                    1	Db 0; завжди 0 
    1268 075D  8F                    1	Db 10001111b ;байт атрибутів - шлюз пас
					тки 
    1269 075E  0000                  1	Dw 0; всі процедури розміщуються в перш
					их 64К 
    1270 0760  0674                  1	Dw Vector * Proc_int_size; зміщення про
					цедури 
    1271 0762  0030 R                1	Dw offset deskr_Int_code; селектор деск
					риптора в GDT 
    1272 0764  00                    1	Db 0; завжди 0 
    1273 0765  8F                    1	Db 10001111b ;байт атрибутів - шлюз пас
					тки 
    1274 0766  0000                  1	Dw 0; всі процедури розміщуються в перш
					их 64К 
    1275 0768  067B                  1	Dw Vector * Proc_int_size; зміщення про
					цедури 
    1276 076A  0030 R                1	Dw offset deskr_Int_code; селектор деск
					риптора в GDT 
    1277 076C  00                    1	Db 0; завжди 0 
    1278 076D  8F                    1	Db 10001111b ;байт атрибутів - шлюз пас
					тки 
    1279 076E  0000                  1	Dw 0; всі процедури розміщуються в перш
					их 64К 
    1280 0770  0682                  1	Dw Vector * Proc_int_size; зміщення про
					цедури 
    1281 0772  0030 R                1	Dw offset deskr_Int_code; селектор деск
					риптора в GDT 
    1282 0774  00                    1	Db 0; завжди 0 
    1283 0775  8F                    1	Db 10001111b ;байт атрибутів - шлюз пас
					тки 
    1284 0776  0000                  1	Dw 0; всі процедури розміщуються в перш
					их 64К 
    1285 0778  0689                  1	Dw Vector * Proc_int_size; зміщення про
					цедури 
    1286 077A  0030 R                1	Dw offset deskr_Int_code; селектор деск
					риптора в GDT 
    1287 077C  00                    1	Db 0; завжди 0 
    1288 077D  8F                    1	Db 10001111b ;байт атрибутів - шлюз пас
					тки 
    1289 077E  0000                  1	Dw 0; всі процедури розміщуються в перш
					их 64К 
    1290 0780  0690                  1	Dw Vector * Proc_int_size; зміщення про
					цедури 
    1291 0782  0030 R                1	Dw offset deskr_Int_code; селектор деск
					риптора в GDT 
Microsoft (R) Macro Assembler Version 5.00                  1/19/16 21:37:03
                                                             Page     1-43


    1292 0784  00                    1	Db 0; завжди 0 
    1293 0785  8F                    1	Db 10001111b ;байт атрибутів - шлюз пас
					тки 
    1294 0786  0000                  1	Dw 0; всі процедури розміщуються в перш
					их 64К 
    1295 0788  0697                  1	Dw Vector * Proc_int_size; зміщення про
					цедури 
    1296 078A  0030 R                1	Dw offset deskr_Int_code; селектор деск
					риптора в GDT 
    1297 078C  00                    1	Db 0; завжди 0 
    1298 078D  8F                    1	Db 10001111b ;байт атрибутів - шлюз пас
					тки 
    1299 078E  0000                  1	Dw 0; всі процедури розміщуються в перш
					их 64К 
    1300 0790  069E                  1	Dw Vector * Proc_int_size; зміщення про
					цедури 
    1301 0792  0030 R                1	Dw offset deskr_Int_code; селектор деск
					риптора в GDT 
    1302 0794  00                    1	Db 0; завжди 0 
    1303 0795  8F                    1	Db 10001111b ;байт атрибутів - шлюз пас
					тки 
    1304 0796  0000                  1	Dw 0; всі процедури розміщуються в перш
					их 64К 
    1305 0798  06A5                  1	Dw Vector * Proc_int_size; зміщення про
					цедури 
    1306 079A  0030 R                1	Dw offset deskr_Int_code; селектор деск
					риптора в GDT 
    1307 079C  00                    1	Db 0; завжди 0 
    1308 079D  8F                    1	Db 10001111b ;байт атрибутів - шлюз пас
					тки 
    1309 079E  0000                  1	Dw 0; всі процедури розміщуються в перш
					их 64К 
    1310 07A0  06AC                  1	Dw Vector * Proc_int_size; зміщення про
					цедури 
    1311 07A2  0030 R                1	Dw offset deskr_Int_code; селектор деск
					риптора в GDT 
    1312 07A4  00                    1	Db 0; завжди 0 
    1313 07A5  8F                    1	Db 10001111b ;байт атрибутів - шлюз пас
					тки 
    1314 07A6  0000                  1	Dw 0; всі процедури розміщуються в перш
					их 64К 
    1315 07A8  06B3                  1	Dw Vector * Proc_int_size; зміщення про
					цедури 
    1316 07AA  0030 R                1	Dw offset deskr_Int_code; селектор деск
					риптора в GDT 
    1317 07AC  00                    1	Db 0; завжди 0 
    1318 07AD  8F                    1	Db 10001111b ;байт атрибутів - шлюз пас
					тки 
    1319 07AE  0000                  1	Dw 0; всі процедури розміщуються в перш
					их 64К 
    1320 07B0  06BA                  1	Dw Vector * Proc_int_size; зміщення про
					цедури 
    1321 07B2  0030 R                1	Dw offset deskr_Int_code; селектор деск
					риптора в GDT 
Microsoft (R) Macro Assembler Version 5.00                  1/19/16 21:37:03
                                                             Page     1-44


    1322 07B4  00                    1	Db 0; завжди 0 
    1323 07B5  8F                    1	Db 10001111b ;байт атрибутів - шлюз пас
					тки 
    1324 07B6  0000                  1	Dw 0; всі процедури розміщуються в перш
					их 64К 
    1325 07B8  06C1                  1	Dw Vector * Proc_int_size; зміщення про
					цедури 
    1326 07BA  0030 R                1	Dw offset deskr_Int_code; селектор деск
					риптора в GDT 
    1327 07BC  00                    1	Db 0; завжди 0 
    1328 07BD  8F                    1	Db 10001111b ;байт атрибутів - шлюз пас
					тки 
    1329 07BE  0000                  1	Dw 0; всі процедури розміщуються в перш
					их 64К 
    1330 07C0  06C8                  1	Dw Vector * Proc_int_size; зміщення про
					цедури 
    1331 07C2  0030 R                1	Dw offset deskr_Int_code; селектор деск
					риптора в GDT 
    1332 07C4  00                    1	Db 0; завжди 0 
    1333 07C5  8F                    1	Db 10001111b ;байт атрибутів - шлюз пас
					тки 
    1334 07C6  0000                  1	Dw 0; всі процедури розміщуються в перш
					их 64К 
    1335 07C8  06CF                  1	Dw Vector * Proc_int_size; зміщення про
					цедури 
    1336 07CA  0030 R                1	Dw offset deskr_Int_code; селектор деск
					риптора в GDT 
    1337 07CC  00                    1	Db 0; завжди 0 
    1338 07CD  8F                    1	Db 10001111b ;байт атрибутів - шлюз пас
					тки 
    1339 07CE  0000                  1	Dw 0; всі процедури розміщуються в перш
					их 64К 
    1340 07D0  06D6                  1	Dw Vector * Proc_int_size; зміщення про
					цедури 
    1341 07D2  0030 R                1	Dw offset deskr_Int_code; селектор деск
					риптора в GDT 
    1342 07D4  00                    1	Db 0; завжди 0 
    1343 07D5  8F                    1	Db 10001111b ;байт атрибутів - шлюз пас
					тки 
    1344 07D6  0000                  1	Dw 0; всі процедури розміщуються в перш
					их 64К 
    1345 07D8  06DD                  1	Dw Vector * Proc_int_size; зміщення про
					цедури 
    1346 07DA  0030 R                1	Dw offset deskr_Int_code; селектор деск
					риптора в GDT 
    1347 07DC  00                    1	Db 0; завжди 0 
    1348 07DD  8F                    1	Db 10001111b ;байт атрибутів - шлюз пас
					тки 
    1349 07DE  0000                  1	Dw 0; всі процедури розміщуються в перш
					их 64К 
    1350 07E0  06E4                  1	Dw Vector * Proc_int_size; зміщення про
					цедури 
    1351 07E2  0030 R                1	Dw offset deskr_Int_code; селектор деск
					риптора в GDT 
Microsoft (R) Macro Assembler Version 5.00                  1/19/16 21:37:03
                                                             Page     1-45


    1352 07E4  00                    1	Db 0; завжди 0 
    1353 07E5  8F                    1	Db 10001111b ;байт атрибутів - шлюз пас
					тки 
    1354 07E6  0000                  1	Dw 0; всі процедури розміщуються в перш
					их 64К 
    1355 07E8  06EB                  1	Dw Vector * Proc_int_size; зміщення про
					цедури 
    1356 07EA  0030 R                1	Dw offset deskr_Int_code; селектор деск
					риптора в GDT 
    1357 07EC  00                    1	Db 0; завжди 0 
    1358 07ED  8F                    1	Db 10001111b ;байт атрибутів - шлюз пас
					тки 
    1359 07EE  0000                  1	Dw 0; всі процедури розміщуються в перш
					их 64К 
    1360 07F0  06F2                  1	Dw Vector * Proc_int_size; зміщення про
					цедури 
    1361 07F2  0030 R                1	Dw offset deskr_Int_code; селектор деск
					риптора в GDT 
    1362 07F4  00                    1	Db 0; завжди 0 
    1363 07F5  8F                    1	Db 10001111b ;байт атрибутів - шлюз пас
					тки 
    1364 07F6  0000                  1	Dw 0; всі процедури розміщуються в перш
					их 64К 
    1365 07F8  06F9                  1	Dw Vector * Proc_int_size; зміщення про
					цедури 
    1366 07FA  0030 R                1	Dw offset deskr_Int_code; селектор деск
					риптора в GDT 
    1367 07FC  00                    1	Db 0; завжди 0 
    1368 07FD  8F                    1	Db 10001111b ;байт атрибутів - шлюз пас
					тки 
    1369 07FE  0000                  1	Dw 0; всі процедури розміщуються в перш
					их 64К 
    1370 0800				IDT	ends 
    1371 0000				.data 
    1372 0000  ????????			Top_real_mode dd ? ;Перед переключенням
					 у захищений режим  потрібно  заборонит
					и переривання 
    1373 0004  00000000			pidt point_dt <> 
    1374 0008  00000000			
    1375				
    1376 000C  00000000			pgdt point_dt <> ;вказівник для GDT (в 
					логічному сегменті даних 
    1377 0010  00000000			
    1378				
    1379 0014  45 72 72 6F 72 21 21	mes1 db 'Error!!!',13,10,'$' 
    1380       21 0D 0A 24		
    1381 001F  30 31 32 33 34 35 36	mess_protect_mode db '0123456' 
    1382 = 009A				code_seg equ 10011010b; не підпорядкова
					ний сегмент кодів, дозволено читати  
    1383 = 0092				data_seg equ 10010010b; сегмент даних, 
					дозволено записувати 
    1384 = 0096				stack_seg equ 10010110b; сегмент стека 
    1385 0026  EA			db 0eah ;машинний код команди jmp 
    1386 0027  00BB R			dw offset protect ;зміщення мітки перех
Microsoft (R) Macro Assembler Version 5.00                  1/19/16 21:37:03
                                                             Page     1-46


					оду в сегменті кодів 
    1387 0029  0028 R			dw offset descr_cs ;селектор сегмента к
					одів  
    1388 0000				.code			 
    1389 0000				Start:  
    1390 0000  66| 0F 20 C0		mov	eax,cr0 
    1391 0004  A8 01			test al,1 
    1392				;jz MOD_error ; процесор уже в захищено
					му режимі 
    1393				;Крім того, необхідно розблокувати 20-й
					 розряд адрес ПЕОМ 
    1394 0006  E4 92			in al,92h 
    1395 0008  0C 02			or al,2 
    1396 000A  E6 92			out	92h,al 
    1397 000C  B8 ---- R		mov	ax,GDT 
    1398 000F  8E D8			mov ds,ax 
    1399				assume ds:GDT  
    1400				;Формування дескриптора сегмента кодів 
    1401 0011  C7 06 0028 R 002F	mov	descr_cs.limit_1,gdt_size ; роз
					мір сегмента кодів 
    1402				;формування фізичної адреси сегмента ко
					дів 
    1403 0017  66| 33 C0		xor	eax,eax 
    1404 001A  B8 ---- R		mov	ax,@code 
    1405 001D  66| C1 E0 04		shl	eax,4 ;відлуння реального режим
					у від TASM 
    1406 0021  66| A3 002A R		mov	dword ptr descr_cs.base_1,  eax
					 
    1407 0025  C6 06 002D R 9A		mov	descr_cs.attrib,code_seg 
    1408				;дескриптор GDT формується для доступу 
					до GDT системними  
    1409				;програмами в захищеному режимі  
    1410				;--------------------------------------
					------------------ 
    1411 002A  C7 06 0008 R 002F	mov descr_gdt.limit_1,gdt_size 
    1412 0030  66| 33 C0		xor eax,eax 
    1413 0033  B8 ---- R		mov ax,GDT 
    1414 0036  66| C1 E0 04		shl eax,4 
    1415 003A  66| A3 000A R		mov dword ptr descr_gdt.base_1,eax 
    1416 003E  C6 06 000D R 92		mov descr_gdt.attrib,  data_seg 
    1417				;Аналогічно формуються дескриптори сегм
					ентів даних. 
    1418 0043  C7 06 0010 R 002F	mov descr_ds.limit_1,gdt_size 
    1419 0049  66| 33 C0		xor eax,eax 
    1420 004C  B8 ---- R		mov ax,GDT 
    1421 004F  66| C1 E0 04		shl eax,4 
    1422 0053  66| A3 000A R		mov dword ptr descr_gdt.base_1,eax 
    1423 0057  C6 06 000D R 92		mov descr_gdt.attrib,  data_seg 
    1424				;Сегмент стека 
    1425 005C  C7 06 0020 R 000A	mov descr_ss.limit_1,10 
    1426 0062  66| 33 C0		xor eax,eax 
    1427 0065  B8 ---- R		mov ax,ST_p 
    1428 0068  66| C1 E0 04		shl eax,4 
    1429 006C  66| A3 0022 R		mov dword ptr descr_ss.base_1,eax 
Microsoft (R) Macro Assembler Version 5.00                  1/19/16 21:37:03
                                                             Page     1-47


    1430 0070  C6 06 0025 R 96		mov descr_ss.attrib,  stack_seg 
    1431				;Відеобуфер 
    1432 0075  C7 06 0018 R FFFF	mov descr_es.limit_1,0ffffh; 
    1433 007B  66| C7 06 001A R 000B8000mov dword ptr descr_es.base_1,0b8000h 
    1434 0084  C6 06 001D R 92		mov descr_es.attrib,data_seg 
    1435				;формування  GDT 
    1436 0089  66| 33 C0		xor eax,eax 
    1437 008C  B8 ---- R		mov ax,GDT 
    1438 008F  66| C1 E0 04		shl eax,4 
    1439 0093  36: 66| A3 0010 R	mov pgdt.adr,eax 
    1440 0098  B8 002F			mov ax,gdt_size 
    1441 009B  36: 66| A3 000C R	mov pgdt.lim,eax 
    1442				;завантаження GDT 
    1443 00A0  36: 0F 01 16 000C R	lgdt pgdt 
    1444				;Переключення  у  захищений  режим  вик
					онується установкою в 1 молодшого біта 
					регістра управління CR0: 
    1445 00A6  FA			Cli 
    1446 00A7  36: 89 26 0000 R		Mov word ptr Top_real_mode,sp 
    1447 00AC  36: 8C 16 0002 R		Mov	word ptr Top_real_mode+2,ss 
    1448 00B1  66| 0F 20 C0		mov eax,cr0 
    1449 00B5  0C 01			or al,1 
    1450 00B7  66| 0F 22 C0		mov cr0,eax 
    1451 00BB				protect: 
    1452				;завантажити селектори для інших дескри
					пторів 
    1453				;припускаємо, що RPL=0 
    1454 00BB  B8 0020 R		mov ax,offset descr_ss 
    1455 00BE  8E D0			mov ss,ax 
    1456 00C0  8B 26 03E8 R		mov sp,Top_stp 
    1457 00C4  B8 0010 R		mov ax,offset descr_ds 
    1458 00C7  8E D8			mov ds,ax 
    1459 00C9  B8 0018 R		mov ax,offset descr_es 
    1460 00CC  8E C0			mov es,ax 
    1461				;Виведення повідомлення на екран 
    1462 00CE  B9 0014			mov cx,20 
    1463 00D1  BE 001F R		mov si,offset mess_protect_mode 
    1464 00D4  BF 0668			mov di,1640 ;початкова адреса виведення
					  
    1465 00D7  B4 07			mov ah,07h ;атрибут символів 
    1466 00D9				outmes: 
    1467 00D9  8A 04			mov al,[si] 
    1468 00DB  26: 89 05		mov es:[di],ax 
    1469 00DE  46			inc si 
    1470 00DF  83 C7 02			add di,2 
    1471 00E2  E2 F5			loop outmes 
    1472				;тут должна быть программа установки за
					щиты 
    1473				;и команды проверки установленнной защи
					ты 
    1474				;повернення в реальний режим 
    1475				 
    1476 00E4				return_dos: 
    1477				assume ds:GDT;  
Microsoft (R) Macro Assembler Version 5.00                  1/19/16 21:37:03
                                                             Page     1-48


    1478 00E4  FA			cli 
    1479 00E5  B8 0008 R		mov ax, offset descr_GDT 
    1480				; в режимі реальних адрес в цьому випад
					ку виконували команду mov ax,GDT 
    1481 00E8  8E D8			mov ds,ax 
    1482 00EA  C7 06 0028 R FFFF	mov descr_cs.limit_1,0ffffh 
    1483 00F0  C7 06 0010 R FFFF	mov descr_ds.limit_1,0ffffh 
    1484 00F6  C6 06 0025 R 92		mov descr_ss. attrib,   data_seg 
    1485				; перезавантаження тіньових регістрів 
    1486 00FB  B8 0010 R		mov ax,offset descr_ds 
    1487 00FE  8E D8			mov ds,ax 
    1488 0100  B8 0018 R		mov ax,offset descr_es 
    1489 0103  8E C0			mov es,ax 
    1490 0105  B8 0020 R		mov ax,offset descr_ss 
    1491 0108  8E D0			mov ss,ax 
    1492 010A  EA			db 0eah 
    1493 010B  010F R			dw offset jumpt 
    1494 010D  0028 R			dw offset descr_cs 
    1495 010F				jumpt: 
    1496				;переключення в режим реальних адрес 
    1497 010F  66| 0F 20 C0		mov eax,cr0 
    1498 0113  24 FE			and al,0feh 
    1499 0115  66| 0F 22 C0		mov cr0,eax 
    1500 0119  EA			db 0eah 
    1501 011A  011C R			dw offset r_mode 
    1502				;dw _CODE 
    1503 011C				r_mode: 
    1504				assume ds:_DATA 
    1505 011C  B8 ---- R		mov ax,_data 
    1506 011F  8E D8			mov ds,ax 
    1507 0121  0F B2 26 0000 R		lss sp,Top_real_mode 
    1508 0126  FB			sti 
    1509 0127  B4 01			mov ah,01h 
    1510 0129  CD 21			int 21h ;чекать введення з клавіатури  
    1511 012B  B8 0003			mov ax,3 
    1512 012E  CD 10			int 10h ; переключить відеоконтролер 
    1513				;закінчення роботи програми (стандартно
					) 
    1514 0130  B8 4C00			mov ax,4c00h 
    1515 0133  CD 21			int 21h 
    1516 0000				Int_code segment	para public 'co
					de' use16 
    1517				Assume cs:Int_code 
    1518 = 0000				Vector=0 
    1519 0000				I_beg: 
    1520 0000  60			Pusha 
    1521 0001  B8 0000			Mov ax,vector 
    1522 0004  E9 070A R		Jmp common_int 
    1523 0007				I_end: 
    1524 = 0007				Proc_int_size = I_end-I_beg 
    1525				; Процедура обробки 0-го переривання ви
					ділена виключно 
    1526				; для автоматичного визначення її розмі
					ру (Proc_int_size) 
Microsoft (R) Macro Assembler Version 5.00                  1/19/16 21:37:03
                                                             Page     1-49


    1527 = 0001				Vector=1 
    1528				Rept 255 
    1529				pusha 
    1530				Mov	ax,vector 
    1531				Jmp	common_int 
    1532				Vector = Vector + 1 
    1533				Endm 
    1534 0007  60                    1	pusha 
    1535 0008  B8 0001               1	Mov	ax,vector 
    1536 000B  E9 070A R             1	Jmp	common_int 
    1537 000E  60                    1	pusha 
    1538 000F  B8 0002               1	Mov	ax,vector 
    1539 0012  E9 070A R             1	Jmp	common_int 
    1540 0015  60                    1	pusha 
    1541 0016  B8 0003               1	Mov	ax,vector 
    1542 0019  E9 070A R             1	Jmp	common_int 
    1543 001C  60                    1	pusha 
    1544 001D  B8 0004               1	Mov	ax,vector 
    1545 0020  E9 070A R             1	Jmp	common_int 
    1546 0023  60                    1	pusha 
    1547 0024  B8 0005               1	Mov	ax,vector 
    1548 0027  E9 070A R             1	Jmp	common_int 
    1549 002A  60                    1	pusha 
    1550 002B  B8 0006               1	Mov	ax,vector 
    1551 002E  E9 070A R             1	Jmp	common_int 
    1552 0031  60                    1	pusha 
    1553 0032  B8 0007               1	Mov	ax,vector 
    1554 0035  E9 070A R             1	Jmp	common_int 
    1555 0038  60                    1	pusha 
    1556 0039  B8 0008               1	Mov	ax,vector 
    1557 003C  E9 070A R             1	Jmp	common_int 
    1558 003F  60                    1	pusha 
    1559 0040  B8 0009               1	Mov	ax,vector 
    1560 0043  E9 070A R             1	Jmp	common_int 
    1561 0046  60                    1	pusha 
    1562 0047  B8 000A               1	Mov	ax,vector 
    1563 004A  E9 070A R             1	Jmp	common_int 
    1564 004D  60                    1	pusha 
    1565 004E  B8 000B               1	Mov	ax,vector 
    1566 0051  E9 070A R             1	Jmp	common_int 
    1567 0054  60                    1	pusha 
    1568 0055  B8 000C               1	Mov	ax,vector 
    1569 0058  E9 070A R             1	Jmp	common_int 
    1570 005B  60                    1	pusha 
    1571 005C  B8 000D               1	Mov	ax,vector 
    1572 005F  E9 070A R             1	Jmp	common_int 
    1573 0062  60                    1	pusha 
    1574 0063  B8 000E               1	Mov	ax,vector 
    1575 0066  E9 070A R             1	Jmp	common_int 
    1576 0069  60                    1	pusha 
    1577 006A  B8 000F               1	Mov	ax,vector 
    1578 006D  E9 070A R             1	Jmp	common_int 
    1579 0070  60                    1	pusha 
    1580 0071  B8 0010               1	Mov	ax,vector 
Microsoft (R) Macro Assembler Version 5.00                  1/19/16 21:37:03
                                                             Page     1-50


    1581 0074  E9 070A R             1	Jmp	common_int 
    1582 0077  60                    1	pusha 
    1583 0078  B8 0011               1	Mov	ax,vector 
    1584 007B  E9 070A R             1	Jmp	common_int 
    1585 007E  60                    1	pusha 
    1586 007F  B8 0012               1	Mov	ax,vector 
    1587 0082  E9 070A R             1	Jmp	common_int 
    1588 0085  60                    1	pusha 
    1589 0086  B8 0013               1	Mov	ax,vector 
    1590 0089  E9 070A R             1	Jmp	common_int 
    1591 008C  60                    1	pusha 
    1592 008D  B8 0014               1	Mov	ax,vector 
    1593 0090  E9 070A R             1	Jmp	common_int 
    1594 0093  60                    1	pusha 
    1595 0094  B8 0015               1	Mov	ax,vector 
    1596 0097  E9 070A R             1	Jmp	common_int 
    1597 009A  60                    1	pusha 
    1598 009B  B8 0016               1	Mov	ax,vector 
    1599 009E  E9 070A R             1	Jmp	common_int 
    1600 00A1  60                    1	pusha 
    1601 00A2  B8 0017               1	Mov	ax,vector 
    1602 00A5  E9 070A R             1	Jmp	common_int 
    1603 00A8  60                    1	pusha 
    1604 00A9  B8 0018               1	Mov	ax,vector 
    1605 00AC  E9 070A R             1	Jmp	common_int 
    1606 00AF  60                    1	pusha 
    1607 00B0  B8 0019               1	Mov	ax,vector 
    1608 00B3  E9 070A R             1	Jmp	common_int 
    1609 00B6  60                    1	pusha 
    1610 00B7  B8 001A               1	Mov	ax,vector 
    1611 00BA  E9 070A R             1	Jmp	common_int 
    1612 00BD  60                    1	pusha 
    1613 00BE  B8 001B               1	Mov	ax,vector 
    1614 00C1  E9 070A R             1	Jmp	common_int 
    1615 00C4  60                    1	pusha 
    1616 00C5  B8 001C               1	Mov	ax,vector 
    1617 00C8  E9 070A R             1	Jmp	common_int 
    1618 00CB  60                    1	pusha 
    1619 00CC  B8 001D               1	Mov	ax,vector 
    1620 00CF  E9 070A R             1	Jmp	common_int 
    1621 00D2  60                    1	pusha 
    1622 00D3  B8 001E               1	Mov	ax,vector 
    1623 00D6  E9 070A R             1	Jmp	common_int 
    1624 00D9  60                    1	pusha 
    1625 00DA  B8 001F               1	Mov	ax,vector 
    1626 00DD  E9 070A R             1	Jmp	common_int 
    1627 00E0  60                    1	pusha 
    1628 00E1  B8 0020               1	Mov	ax,vector 
    1629 00E4  E9 070A R             1	Jmp	common_int 
    1630 00E7  60                    1	pusha 
    1631 00E8  B8 0021               1	Mov	ax,vector 
    1632 00EB  E9 070A R             1	Jmp	common_int 
    1633 00EE  60                    1	pusha 
    1634 00EF  B8 0022               1	Mov	ax,vector 
Microsoft (R) Macro Assembler Version 5.00                  1/19/16 21:37:03
                                                             Page     1-51


    1635 00F2  E9 070A R             1	Jmp	common_int 
    1636 00F5  60                    1	pusha 
    1637 00F6  B8 0023               1	Mov	ax,vector 
    1638 00F9  E9 070A R             1	Jmp	common_int 
    1639 00FC  60                    1	pusha 
    1640 00FD  B8 0024               1	Mov	ax,vector 
    1641 0100  E9 070A R             1	Jmp	common_int 
    1642 0103  60                    1	pusha 
    1643 0104  B8 0025               1	Mov	ax,vector 
    1644 0107  E9 070A R             1	Jmp	common_int 
    1645 010A  60                    1	pusha 
    1646 010B  B8 0026               1	Mov	ax,vector 
    1647 010E  E9 070A R             1	Jmp	common_int 
    1648 0111  60                    1	pusha 
    1649 0112  B8 0027               1	Mov	ax,vector 
    1650 0115  E9 070A R             1	Jmp	common_int 
    1651 0118  60                    1	pusha 
    1652 0119  B8 0028               1	Mov	ax,vector 
    1653 011C  E9 070A R             1	Jmp	common_int 
    1654 011F  60                    1	pusha 
    1655 0120  B8 0029               1	Mov	ax,vector 
    1656 0123  E9 070A R             1	Jmp	common_int 
    1657 0126  60                    1	pusha 
    1658 0127  B8 002A               1	Mov	ax,vector 
    1659 012A  E9 070A R             1	Jmp	common_int 
    1660 012D  60                    1	pusha 
    1661 012E  B8 002B               1	Mov	ax,vector 
    1662 0131  E9 070A R             1	Jmp	common_int 
    1663 0134  60                    1	pusha 
    1664 0135  B8 002C               1	Mov	ax,vector 
    1665 0138  E9 070A R             1	Jmp	common_int 
    1666 013B  60                    1	pusha 
    1667 013C  B8 002D               1	Mov	ax,vector 
    1668 013F  E9 070A R             1	Jmp	common_int 
    1669 0142  60                    1	pusha 
    1670 0143  B8 002E               1	Mov	ax,vector 
    1671 0146  E9 070A R             1	Jmp	common_int 
    1672 0149  60                    1	pusha 
    1673 014A  B8 002F               1	Mov	ax,vector 
    1674 014D  E9 070A R             1	Jmp	common_int 
    1675 0150  60                    1	pusha 
    1676 0151  B8 0030               1	Mov	ax,vector 
    1677 0154  E9 070A R             1	Jmp	common_int 
    1678 0157  60                    1	pusha 
    1679 0158  B8 0031               1	Mov	ax,vector 
    1680 015B  E9 070A R             1	Jmp	common_int 
    1681 015E  60                    1	pusha 
    1682 015F  B8 0032               1	Mov	ax,vector 
    1683 0162  E9 070A R             1	Jmp	common_int 
    1684 0165  60                    1	pusha 
    1685 0166  B8 0033               1	Mov	ax,vector 
    1686 0169  E9 070A R             1	Jmp	common_int 
    1687 016C  60                    1	pusha 
    1688 016D  B8 0034               1	Mov	ax,vector 
Microsoft (R) Macro Assembler Version 5.00                  1/19/16 21:37:03
                                                             Page     1-52


    1689 0170  E9 070A R             1	Jmp	common_int 
    1690 0173  60                    1	pusha 
    1691 0174  B8 0035               1	Mov	ax,vector 
    1692 0177  E9 070A R             1	Jmp	common_int 
    1693 017A  60                    1	pusha 
    1694 017B  B8 0036               1	Mov	ax,vector 
    1695 017E  E9 070A R             1	Jmp	common_int 
    1696 0181  60                    1	pusha 
    1697 0182  B8 0037               1	Mov	ax,vector 
    1698 0185  E9 070A R             1	Jmp	common_int 
    1699 0188  60                    1	pusha 
    1700 0189  B8 0038               1	Mov	ax,vector 
    1701 018C  E9 070A R             1	Jmp	common_int 
    1702 018F  60                    1	pusha 
    1703 0190  B8 0039               1	Mov	ax,vector 
    1704 0193  E9 070A R             1	Jmp	common_int 
    1705 0196  60                    1	pusha 
    1706 0197  B8 003A               1	Mov	ax,vector 
    1707 019A  E9 070A R             1	Jmp	common_int 
    1708 019D  60                    1	pusha 
    1709 019E  B8 003B               1	Mov	ax,vector 
    1710 01A1  E9 070A R             1	Jmp	common_int 
    1711 01A4  60                    1	pusha 
    1712 01A5  B8 003C               1	Mov	ax,vector 
    1713 01A8  E9 070A R             1	Jmp	common_int 
    1714 01AB  60                    1	pusha 
    1715 01AC  B8 003D               1	Mov	ax,vector 
    1716 01AF  E9 070A R             1	Jmp	common_int 
    1717 01B2  60                    1	pusha 
    1718 01B3  B8 003E               1	Mov	ax,vector 
    1719 01B6  E9 070A R             1	Jmp	common_int 
    1720 01B9  60                    1	pusha 
    1721 01BA  B8 003F               1	Mov	ax,vector 
    1722 01BD  E9 070A R             1	Jmp	common_int 
    1723 01C0  60                    1	pusha 
    1724 01C1  B8 0040               1	Mov	ax,vector 
    1725 01C4  E9 070A R             1	Jmp	common_int 
    1726 01C7  60                    1	pusha 
    1727 01C8  B8 0041               1	Mov	ax,vector 
    1728 01CB  E9 070A R             1	Jmp	common_int 
    1729 01CE  60                    1	pusha 
    1730 01CF  B8 0042               1	Mov	ax,vector 
    1731 01D2  E9 070A R             1	Jmp	common_int 
    1732 01D5  60                    1	pusha 
    1733 01D6  B8 0043               1	Mov	ax,vector 
    1734 01D9  E9 070A R             1	Jmp	common_int 
    1735 01DC  60                    1	pusha 
    1736 01DD  B8 0044               1	Mov	ax,vector 
    1737 01E0  E9 070A R             1	Jmp	common_int 
    1738 01E3  60                    1	pusha 
    1739 01E4  B8 0045               1	Mov	ax,vector 
    1740 01E7  E9 070A R             1	Jmp	common_int 
    1741 01EA  60                    1	pusha 
    1742 01EB  B8 0046               1	Mov	ax,vector 
Microsoft (R) Macro Assembler Version 5.00                  1/19/16 21:37:03
                                                             Page     1-53


    1743 01EE  E9 070A R             1	Jmp	common_int 
    1744 01F1  60                    1	pusha 
    1745 01F2  B8 0047               1	Mov	ax,vector 
    1746 01F5  E9 070A R             1	Jmp	common_int 
    1747 01F8  60                    1	pusha 
    1748 01F9  B8 0048               1	Mov	ax,vector 
    1749 01FC  E9 070A R             1	Jmp	common_int 
    1750 01FF  60                    1	pusha 
    1751 0200  B8 0049               1	Mov	ax,vector 
    1752 0203  E9 070A R             1	Jmp	common_int 
    1753 0206  60                    1	pusha 
    1754 0207  B8 004A               1	Mov	ax,vector 
    1755 020A  E9 070A R             1	Jmp	common_int 
    1756 020D  60                    1	pusha 
    1757 020E  B8 004B               1	Mov	ax,vector 
    1758 0211  E9 070A R             1	Jmp	common_int 
    1759 0214  60                    1	pusha 
    1760 0215  B8 004C               1	Mov	ax,vector 
    1761 0218  E9 070A R             1	Jmp	common_int 
    1762 021B  60                    1	pusha 
    1763 021C  B8 004D               1	Mov	ax,vector 
    1764 021F  E9 070A R             1	Jmp	common_int 
    1765 0222  60                    1	pusha 
    1766 0223  B8 004E               1	Mov	ax,vector 
    1767 0226  E9 070A R             1	Jmp	common_int 
    1768 0229  60                    1	pusha 
    1769 022A  B8 004F               1	Mov	ax,vector 
    1770 022D  E9 070A R             1	Jmp	common_int 
    1771 0230  60                    1	pusha 
    1772 0231  B8 0050               1	Mov	ax,vector 
    1773 0234  E9 070A R             1	Jmp	common_int 
    1774 0237  60                    1	pusha 
    1775 0238  B8 0051               1	Mov	ax,vector 
    1776 023B  E9 070A R             1	Jmp	common_int 
    1777 023E  60                    1	pusha 
    1778 023F  B8 0052               1	Mov	ax,vector 
    1779 0242  E9 070A R             1	Jmp	common_int 
    1780 0245  60                    1	pusha 
    1781 0246  B8 0053               1	Mov	ax,vector 
    1782 0249  E9 070A R             1	Jmp	common_int 
    1783 024C  60                    1	pusha 
    1784 024D  B8 0054               1	Mov	ax,vector 
    1785 0250  E9 070A R             1	Jmp	common_int 
    1786 0253  60                    1	pusha 
    1787 0254  B8 0055               1	Mov	ax,vector 
    1788 0257  E9 070A R             1	Jmp	common_int 
    1789 025A  60                    1	pusha 
    1790 025B  B8 0056               1	Mov	ax,vector 
    1791 025E  E9 070A R             1	Jmp	common_int 
    1792 0261  60                    1	pusha 
    1793 0262  B8 0057               1	Mov	ax,vector 
    1794 0265  E9 070A R             1	Jmp	common_int 
    1795 0268  60                    1	pusha 
    1796 0269  B8 0058               1	Mov	ax,vector 
Microsoft (R) Macro Assembler Version 5.00                  1/19/16 21:37:03
                                                             Page     1-54


    1797 026C  E9 070A R             1	Jmp	common_int 
    1798 026F  60                    1	pusha 
    1799 0270  B8 0059               1	Mov	ax,vector 
    1800 0273  E9 070A R             1	Jmp	common_int 
    1801 0276  60                    1	pusha 
    1802 0277  B8 005A               1	Mov	ax,vector 
    1803 027A  E9 070A R             1	Jmp	common_int 
    1804 027D  60                    1	pusha 
    1805 027E  B8 005B               1	Mov	ax,vector 
    1806 0281  E9 070A R             1	Jmp	common_int 
    1807 0284  60                    1	pusha 
    1808 0285  B8 005C               1	Mov	ax,vector 
    1809 0288  E9 070A R             1	Jmp	common_int 
    1810 028B  60                    1	pusha 
    1811 028C  B8 005D               1	Mov	ax,vector 
    1812 028F  E9 070A R             1	Jmp	common_int 
    1813 0292  60                    1	pusha 
    1814 0293  B8 005E               1	Mov	ax,vector 
    1815 0296  E9 070A R             1	Jmp	common_int 
    1816 0299  60                    1	pusha 
    1817 029A  B8 005F               1	Mov	ax,vector 
    1818 029D  E9 070A R             1	Jmp	common_int 
    1819 02A0  60                    1	pusha 
    1820 02A1  B8 0060               1	Mov	ax,vector 
    1821 02A4  E9 070A R             1	Jmp	common_int 
    1822 02A7  60                    1	pusha 
    1823 02A8  B8 0061               1	Mov	ax,vector 
    1824 02AB  E9 070A R             1	Jmp	common_int 
    1825 02AE  60                    1	pusha 
    1826 02AF  B8 0062               1	Mov	ax,vector 
    1827 02B2  E9 070A R             1	Jmp	common_int 
    1828 02B5  60                    1	pusha 
    1829 02B6  B8 0063               1	Mov	ax,vector 
    1830 02B9  E9 070A R             1	Jmp	common_int 
    1831 02BC  60                    1	pusha 
    1832 02BD  B8 0064               1	Mov	ax,vector 
    1833 02C0  E9 070A R             1	Jmp	common_int 
    1834 02C3  60                    1	pusha 
    1835 02C4  B8 0065               1	Mov	ax,vector 
    1836 02C7  E9 070A R             1	Jmp	common_int 
    1837 02CA  60                    1	pusha 
    1838 02CB  B8 0066               1	Mov	ax,vector 
    1839 02CE  E9 070A R             1	Jmp	common_int 
    1840 02D1  60                    1	pusha 
    1841 02D2  B8 0067               1	Mov	ax,vector 
    1842 02D5  E9 070A R             1	Jmp	common_int 
    1843 02D8  60                    1	pusha 
    1844 02D9  B8 0068               1	Mov	ax,vector 
    1845 02DC  E9 070A R             1	Jmp	common_int 
    1846 02DF  60                    1	pusha 
    1847 02E0  B8 0069               1	Mov	ax,vector 
    1848 02E3  E9 070A R             1	Jmp	common_int 
    1849 02E6  60                    1	pusha 
    1850 02E7  B8 006A               1	Mov	ax,vector 
Microsoft (R) Macro Assembler Version 5.00                  1/19/16 21:37:03
                                                             Page     1-55


    1851 02EA  E9 070A R             1	Jmp	common_int 
    1852 02ED  60                    1	pusha 
    1853 02EE  B8 006B               1	Mov	ax,vector 
    1854 02F1  E9 070A R             1	Jmp	common_int 
    1855 02F4  60                    1	pusha 
    1856 02F5  B8 006C               1	Mov	ax,vector 
    1857 02F8  E9 070A R             1	Jmp	common_int 
    1858 02FB  60                    1	pusha 
    1859 02FC  B8 006D               1	Mov	ax,vector 
    1860 02FF  E9 070A R             1	Jmp	common_int 
    1861 0302  60                    1	pusha 
    1862 0303  B8 006E               1	Mov	ax,vector 
    1863 0306  E9 070A R             1	Jmp	common_int 
    1864 0309  60                    1	pusha 
    1865 030A  B8 006F               1	Mov	ax,vector 
    1866 030D  E9 070A R             1	Jmp	common_int 
    1867 0310  60                    1	pusha 
    1868 0311  B8 0070               1	Mov	ax,vector 
    1869 0314  E9 070A R             1	Jmp	common_int 
    1870 0317  60                    1	pusha 
    1871 0318  B8 0071               1	Mov	ax,vector 
    1872 031B  E9 070A R             1	Jmp	common_int 
    1873 031E  60                    1	pusha 
    1874 031F  B8 0072               1	Mov	ax,vector 
    1875 0322  E9 070A R             1	Jmp	common_int 
    1876 0325  60                    1	pusha 
    1877 0326  B8 0073               1	Mov	ax,vector 
    1878 0329  E9 070A R             1	Jmp	common_int 
    1879 032C  60                    1	pusha 
    1880 032D  B8 0074               1	Mov	ax,vector 
    1881 0330  E9 070A R             1	Jmp	common_int 
    1882 0333  60                    1	pusha 
    1883 0334  B8 0075               1	Mov	ax,vector 
    1884 0337  E9 070A R             1	Jmp	common_int 
    1885 033A  60                    1	pusha 
    1886 033B  B8 0076               1	Mov	ax,vector 
    1887 033E  E9 070A R             1	Jmp	common_int 
    1888 0341  60                    1	pusha 
    1889 0342  B8 0077               1	Mov	ax,vector 
    1890 0345  E9 070A R             1	Jmp	common_int 
    1891 0348  60                    1	pusha 
    1892 0349  B8 0078               1	Mov	ax,vector 
    1893 034C  E9 070A R             1	Jmp	common_int 
    1894 034F  60                    1	pusha 
    1895 0350  B8 0079               1	Mov	ax,vector 
    1896 0353  E9 070A R             1	Jmp	common_int 
    1897 0356  60                    1	pusha 
    1898 0357  B8 007A               1	Mov	ax,vector 
    1899 035A  E9 070A R             1	Jmp	common_int 
    1900 035D  60                    1	pusha 
    1901 035E  B8 007B               1	Mov	ax,vector 
    1902 0361  E9 070A R             1	Jmp	common_int 
    1903 0364  60                    1	pusha 
    1904 0365  B8 007C               1	Mov	ax,vector 
Microsoft (R) Macro Assembler Version 5.00                  1/19/16 21:37:03
                                                             Page     1-56


    1905 0368  E9 070A R             1	Jmp	common_int 
    1906 036B  60                    1	pusha 
    1907 036C  B8 007D               1	Mov	ax,vector 
    1908 036F  E9 070A R             1	Jmp	common_int 
    1909 0372  60                    1	pusha 
    1910 0373  B8 007E               1	Mov	ax,vector 
    1911 0376  E9 070A R             1	Jmp	common_int 
    1912 0379  60                    1	pusha 
    1913 037A  B8 007F               1	Mov	ax,vector 
    1914 037D  E9 070A R             1	Jmp	common_int 
    1915 0380  60                    1	pusha 
    1916 0381  B8 0080               1	Mov	ax,vector 
    1917 0384  E9 070A R             1	Jmp	common_int 
    1918 0387  60                    1	pusha 
    1919 0388  B8 0081               1	Mov	ax,vector 
    1920 038B  E9 070A R             1	Jmp	common_int 
    1921 038E  60                    1	pusha 
    1922 038F  B8 0082               1	Mov	ax,vector 
    1923 0392  E9 070A R             1	Jmp	common_int 
    1924 0395  60                    1	pusha 
    1925 0396  B8 0083               1	Mov	ax,vector 
    1926 0399  E9 070A R             1	Jmp	common_int 
    1927 039C  60                    1	pusha 
    1928 039D  B8 0084               1	Mov	ax,vector 
    1929 03A0  E9 070A R             1	Jmp	common_int 
    1930 03A3  60                    1	pusha 
    1931 03A4  B8 0085               1	Mov	ax,vector 
    1932 03A7  E9 070A R             1	Jmp	common_int 
    1933 03AA  60                    1	pusha 
    1934 03AB  B8 0086               1	Mov	ax,vector 
    1935 03AE  E9 070A R             1	Jmp	common_int 
    1936 03B1  60                    1	pusha 
    1937 03B2  B8 0087               1	Mov	ax,vector 
    1938 03B5  E9 070A R             1	Jmp	common_int 
    1939 03B8  60                    1	pusha 
    1940 03B9  B8 0088               1	Mov	ax,vector 
    1941 03BC  E9 070A R             1	Jmp	common_int 
    1942 03BF  60                    1	pusha 
    1943 03C0  B8 0089               1	Mov	ax,vector 
    1944 03C3  E9 070A R             1	Jmp	common_int 
    1945 03C6  60                    1	pusha 
    1946 03C7  B8 008A               1	Mov	ax,vector 
    1947 03CA  E9 070A R             1	Jmp	common_int 
    1948 03CD  60                    1	pusha 
    1949 03CE  B8 008B               1	Mov	ax,vector 
    1950 03D1  E9 070A R             1	Jmp	common_int 
    1951 03D4  60                    1	pusha 
    1952 03D5  B8 008C               1	Mov	ax,vector 
    1953 03D8  E9 070A R             1	Jmp	common_int 
    1954 03DB  60                    1	pusha 
    1955 03DC  B8 008D               1	Mov	ax,vector 
    1956 03DF  E9 070A R             1	Jmp	common_int 
    1957 03E2  60                    1	pusha 
    1958 03E3  B8 008E               1	Mov	ax,vector 
Microsoft (R) Macro Assembler Version 5.00                  1/19/16 21:37:03
                                                             Page     1-57


    1959 03E6  E9 070A R             1	Jmp	common_int 
    1960 03E9  60                    1	pusha 
    1961 03EA  B8 008F               1	Mov	ax,vector 
    1962 03ED  E9 070A R             1	Jmp	common_int 
    1963 03F0  60                    1	pusha 
    1964 03F1  B8 0090               1	Mov	ax,vector 
    1965 03F4  E9 070A R             1	Jmp	common_int 
    1966 03F7  60                    1	pusha 
    1967 03F8  B8 0091               1	Mov	ax,vector 
    1968 03FB  E9 070A R             1	Jmp	common_int 
    1969 03FE  60                    1	pusha 
    1970 03FF  B8 0092               1	Mov	ax,vector 
    1971 0402  E9 070A R             1	Jmp	common_int 
    1972 0405  60                    1	pusha 
    1973 0406  B8 0093               1	Mov	ax,vector 
    1974 0409  E9 070A R             1	Jmp	common_int 
    1975 040C  60                    1	pusha 
    1976 040D  B8 0094               1	Mov	ax,vector 
    1977 0410  E9 070A R             1	Jmp	common_int 
    1978 0413  60                    1	pusha 
    1979 0414  B8 0095               1	Mov	ax,vector 
    1980 0417  E9 070A R             1	Jmp	common_int 
    1981 041A  60                    1	pusha 
    1982 041B  B8 0096               1	Mov	ax,vector 
    1983 041E  E9 070A R             1	Jmp	common_int 
    1984 0421  60                    1	pusha 
    1985 0422  B8 0097               1	Mov	ax,vector 
    1986 0425  E9 070A R             1	Jmp	common_int 
    1987 0428  60                    1	pusha 
    1988 0429  B8 0098               1	Mov	ax,vector 
    1989 042C  E9 070A R             1	Jmp	common_int 
    1990 042F  60                    1	pusha 
    1991 0430  B8 0099               1	Mov	ax,vector 
    1992 0433  E9 070A R             1	Jmp	common_int 
    1993 0436  60                    1	pusha 
    1994 0437  B8 009A               1	Mov	ax,vector 
    1995 043A  E9 070A R             1	Jmp	common_int 
    1996 043D  60                    1	pusha 
    1997 043E  B8 009B               1	Mov	ax,vector 
    1998 0441  E9 070A R             1	Jmp	common_int 
    1999 0444  60                    1	pusha 
    2000 0445  B8 009C               1	Mov	ax,vector 
    2001 0448  E9 070A R             1	Jmp	common_int 
    2002 044B  60                    1	pusha 
    2003 044C  B8 009D               1	Mov	ax,vector 
    2004 044F  E9 070A R             1	Jmp	common_int 
    2005 0452  60                    1	pusha 
    2006 0453  B8 009E               1	Mov	ax,vector 
    2007 0456  E9 070A R             1	Jmp	common_int 
    2008 0459  60                    1	pusha 
    2009 045A  B8 009F               1	Mov	ax,vector 
    2010 045D  E9 070A R             1	Jmp	common_int 
    2011 0460  60                    1	pusha 
    2012 0461  B8 00A0               1	Mov	ax,vector 
Microsoft (R) Macro Assembler Version 5.00                  1/19/16 21:37:03
                                                             Page     1-58


    2013 0464  E9 070A R             1	Jmp	common_int 
    2014 0467  60                    1	pusha 
    2015 0468  B8 00A1               1	Mov	ax,vector 
    2016 046B  E9 070A R             1	Jmp	common_int 
    2017 046E  60                    1	pusha 
    2018 046F  B8 00A2               1	Mov	ax,vector 
    2019 0472  E9 070A R             1	Jmp	common_int 
    2020 0475  60                    1	pusha 
    2021 0476  B8 00A3               1	Mov	ax,vector 
    2022 0479  E9 070A R             1	Jmp	common_int 
    2023 047C  60                    1	pusha 
    2024 047D  B8 00A4               1	Mov	ax,vector 
    2025 0480  E9 070A R             1	Jmp	common_int 
    2026 0483  60                    1	pusha 
    2027 0484  B8 00A5               1	Mov	ax,vector 
    2028 0487  E9 070A R             1	Jmp	common_int 
    2029 048A  60                    1	pusha 
    2030 048B  B8 00A6               1	Mov	ax,vector 
    2031 048E  E9 070A R             1	Jmp	common_int 
    2032 0491  60                    1	pusha 
    2033 0492  B8 00A7               1	Mov	ax,vector 
    2034 0495  E9 070A R             1	Jmp	common_int 
    2035 0498  60                    1	pusha 
    2036 0499  B8 00A8               1	Mov	ax,vector 
    2037 049C  E9 070A R             1	Jmp	common_int 
    2038 049F  60                    1	pusha 
    2039 04A0  B8 00A9               1	Mov	ax,vector 
    2040 04A3  E9 070A R             1	Jmp	common_int 
    2041 04A6  60                    1	pusha 
    2042 04A7  B8 00AA               1	Mov	ax,vector 
    2043 04AA  E9 070A R             1	Jmp	common_int 
    2044 04AD  60                    1	pusha 
    2045 04AE  B8 00AB               1	Mov	ax,vector 
    2046 04B1  E9 070A R             1	Jmp	common_int 
    2047 04B4  60                    1	pusha 
    2048 04B5  B8 00AC               1	Mov	ax,vector 
    2049 04B8  E9 070A R             1	Jmp	common_int 
    2050 04BB  60                    1	pusha 
    2051 04BC  B8 00AD               1	Mov	ax,vector 
    2052 04BF  E9 070A R             1	Jmp	common_int 
    2053 04C2  60                    1	pusha 
    2054 04C3  B8 00AE               1	Mov	ax,vector 
    2055 04C6  E9 070A R             1	Jmp	common_int 
    2056 04C9  60                    1	pusha 
    2057 04CA  B8 00AF               1	Mov	ax,vector 
    2058 04CD  E9 070A R             1	Jmp	common_int 
    2059 04D0  60                    1	pusha 
    2060 04D1  B8 00B0               1	Mov	ax,vector 
    2061 04D4  E9 070A R             1	Jmp	common_int 
    2062 04D7  60                    1	pusha 
    2063 04D8  B8 00B1               1	Mov	ax,vector 
    2064 04DB  E9 070A R             1	Jmp	common_int 
    2065 04DE  60                    1	pusha 
    2066 04DF  B8 00B2               1	Mov	ax,vector 
Microsoft (R) Macro Assembler Version 5.00                  1/19/16 21:37:03
                                                             Page     1-59


    2067 04E2  E9 070A R             1	Jmp	common_int 
    2068 04E5  60                    1	pusha 
    2069 04E6  B8 00B3               1	Mov	ax,vector 
    2070 04E9  E9 070A R             1	Jmp	common_int 
    2071 04EC  60                    1	pusha 
    2072 04ED  B8 00B4               1	Mov	ax,vector 
    2073 04F0  E9 070A R             1	Jmp	common_int 
    2074 04F3  60                    1	pusha 
    2075 04F4  B8 00B5               1	Mov	ax,vector 
    2076 04F7  E9 070A R             1	Jmp	common_int 
    2077 04FA  60                    1	pusha 
    2078 04FB  B8 00B6               1	Mov	ax,vector 
    2079 04FE  E9 070A R             1	Jmp	common_int 
    2080 0501  60                    1	pusha 
    2081 0502  B8 00B7               1	Mov	ax,vector 
    2082 0505  E9 070A R             1	Jmp	common_int 
    2083 0508  60                    1	pusha 
    2084 0509  B8 00B8               1	Mov	ax,vector 
    2085 050C  E9 070A R             1	Jmp	common_int 
    2086 050F  60                    1	pusha 
    2087 0510  B8 00B9               1	Mov	ax,vector 
    2088 0513  E9 070A R             1	Jmp	common_int 
    2089 0516  60                    1	pusha 
    2090 0517  B8 00BA               1	Mov	ax,vector 
    2091 051A  E9 070A R             1	Jmp	common_int 
    2092 051D  60                    1	pusha 
    2093 051E  B8 00BB               1	Mov	ax,vector 
    2094 0521  E9 070A R             1	Jmp	common_int 
    2095 0524  60                    1	pusha 
    2096 0525  B8 00BC               1	Mov	ax,vector 
    2097 0528  E9 070A R             1	Jmp	common_int 
    2098 052B  60                    1	pusha 
    2099 052C  B8 00BD               1	Mov	ax,vector 
    2100 052F  E9 070A R             1	Jmp	common_int 
    2101 0532  60                    1	pusha 
    2102 0533  B8 00BE               1	Mov	ax,vector 
    2103 0536  E9 070A R             1	Jmp	common_int 
    2104 0539  60                    1	pusha 
    2105 053A  B8 00BF               1	Mov	ax,vector 
    2106 053D  E9 070A R             1	Jmp	common_int 
    2107 0540  60                    1	pusha 
    2108 0541  B8 00C0               1	Mov	ax,vector 
    2109 0544  E9 070A R             1	Jmp	common_int 
    2110 0547  60                    1	pusha 
    2111 0548  B8 00C1               1	Mov	ax,vector 
    2112 054B  E9 070A R             1	Jmp	common_int 
    2113 054E  60                    1	pusha 
    2114 054F  B8 00C2               1	Mov	ax,vector 
    2115 0552  E9 070A R             1	Jmp	common_int 
    2116 0555  60                    1	pusha 
    2117 0556  B8 00C3               1	Mov	ax,vector 
    2118 0559  E9 070A R             1	Jmp	common_int 
    2119 055C  60                    1	pusha 
    2120 055D  B8 00C4               1	Mov	ax,vector 
Microsoft (R) Macro Assembler Version 5.00                  1/19/16 21:37:03
                                                             Page     1-60


    2121 0560  E9 070A R             1	Jmp	common_int 
    2122 0563  60                    1	pusha 
    2123 0564  B8 00C5               1	Mov	ax,vector 
    2124 0567  E9 070A R             1	Jmp	common_int 
    2125 056A  60                    1	pusha 
    2126 056B  B8 00C6               1	Mov	ax,vector 
    2127 056E  E9 070A R             1	Jmp	common_int 
    2128 0571  60                    1	pusha 
    2129 0572  B8 00C7               1	Mov	ax,vector 
    2130 0575  E9 070A R             1	Jmp	common_int 
    2131 0578  60                    1	pusha 
    2132 0579  B8 00C8               1	Mov	ax,vector 
    2133 057C  E9 070A R             1	Jmp	common_int 
    2134 057F  60                    1	pusha 
    2135 0580  B8 00C9               1	Mov	ax,vector 
    2136 0583  E9 070A R             1	Jmp	common_int 
    2137 0586  60                    1	pusha 
    2138 0587  B8 00CA               1	Mov	ax,vector 
    2139 058A  E9 070A R             1	Jmp	common_int 
    2140 058D  60                    1	pusha 
    2141 058E  B8 00CB               1	Mov	ax,vector 
    2142 0591  E9 070A R             1	Jmp	common_int 
    2143 0594  60                    1	pusha 
    2144 0595  B8 00CC               1	Mov	ax,vector 
    2145 0598  E9 070A R             1	Jmp	common_int 
    2146 059B  60                    1	pusha 
    2147 059C  B8 00CD               1	Mov	ax,vector 
    2148 059F  E9 070A R             1	Jmp	common_int 
    2149 05A2  60                    1	pusha 
    2150 05A3  B8 00CE               1	Mov	ax,vector 
    2151 05A6  E9 070A R             1	Jmp	common_int 
    2152 05A9  60                    1	pusha 
    2153 05AA  B8 00CF               1	Mov	ax,vector 
    2154 05AD  E9 070A R             1	Jmp	common_int 
    2155 05B0  60                    1	pusha 
    2156 05B1  B8 00D0               1	Mov	ax,vector 
    2157 05B4  E9 070A R             1	Jmp	common_int 
    2158 05B7  60                    1	pusha 
    2159 05B8  B8 00D1               1	Mov	ax,vector 
    2160 05BB  E9 070A R             1	Jmp	common_int 
    2161 05BE  60                    1	pusha 
    2162 05BF  B8 00D2               1	Mov	ax,vector 
    2163 05C2  E9 070A R             1	Jmp	common_int 
    2164 05C5  60                    1	pusha 
    2165 05C6  B8 00D3               1	Mov	ax,vector 
    2166 05C9  E9 070A R             1	Jmp	common_int 
    2167 05CC  60                    1	pusha 
    2168 05CD  B8 00D4               1	Mov	ax,vector 
    2169 05D0  E9 070A R             1	Jmp	common_int 
    2170 05D3  60                    1	pusha 
    2171 05D4  B8 00D5               1	Mov	ax,vector 
    2172 05D7  E9 070A R             1	Jmp	common_int 
    2173 05DA  60                    1	pusha 
    2174 05DB  B8 00D6               1	Mov	ax,vector 
Microsoft (R) Macro Assembler Version 5.00                  1/19/16 21:37:03
                                                             Page     1-61


    2175 05DE  E9 070A R             1	Jmp	common_int 
    2176 05E1  60                    1	pusha 
    2177 05E2  B8 00D7               1	Mov	ax,vector 
    2178 05E5  E9 070A R             1	Jmp	common_int 
    2179 05E8  60                    1	pusha 
    2180 05E9  B8 00D8               1	Mov	ax,vector 
    2181 05EC  E9 070A R             1	Jmp	common_int 
    2182 05EF  60                    1	pusha 
    2183 05F0  B8 00D9               1	Mov	ax,vector 
    2184 05F3  E9 070A R             1	Jmp	common_int 
    2185 05F6  60                    1	pusha 
    2186 05F7  B8 00DA               1	Mov	ax,vector 
    2187 05FA  E9 070A R             1	Jmp	common_int 
    2188 05FD  60                    1	pusha 
    2189 05FE  B8 00DB               1	Mov	ax,vector 
    2190 0601  E9 070A R             1	Jmp	common_int 
    2191 0604  60                    1	pusha 
    2192 0605  B8 00DC               1	Mov	ax,vector 
    2193 0608  E9 070A R             1	Jmp	common_int 
    2194 060B  60                    1	pusha 
    2195 060C  B8 00DD               1	Mov	ax,vector 
    2196 060F  E9 070A R             1	Jmp	common_int 
    2197 0612  60                    1	pusha 
    2198 0613  B8 00DE               1	Mov	ax,vector 
    2199 0616  E9 070A R             1	Jmp	common_int 
    2200 0619  60                    1	pusha 
    2201 061A  B8 00DF               1	Mov	ax,vector 
    2202 061D  E9 070A R             1	Jmp	common_int 
    2203 0620  60                    1	pusha 
    2204 0621  B8 00E0               1	Mov	ax,vector 
    2205 0624  E9 070A R             1	Jmp	common_int 
    2206 0627  60                    1	pusha 
    2207 0628  B8 00E1               1	Mov	ax,vector 
    2208 062B  E9 070A R             1	Jmp	common_int 
    2209 062E  60                    1	pusha 
    2210 062F  B8 00E2               1	Mov	ax,vector 
    2211 0632  E9 070A R             1	Jmp	common_int 
    2212 0635  60                    1	pusha 
    2213 0636  B8 00E3               1	Mov	ax,vector 
    2214 0639  E9 070A R             1	Jmp	common_int 
    2215 063C  60                    1	pusha 
    2216 063D  B8 00E4               1	Mov	ax,vector 
    2217 0640  E9 070A R             1	Jmp	common_int 
    2218 0643  60                    1	pusha 
    2219 0644  B8 00E5               1	Mov	ax,vector 
    2220 0647  E9 070A R             1	Jmp	common_int 
    2221 064A  60                    1	pusha 
    2222 064B  B8 00E6               1	Mov	ax,vector 
    2223 064E  E9 070A R             1	Jmp	common_int 
    2224 0651  60                    1	pusha 
    2225 0652  B8 00E7               1	Mov	ax,vector 
    2226 0655  E9 070A R             1	Jmp	common_int 
    2227 0658  60                    1	pusha 
    2228 0659  B8 00E8               1	Mov	ax,vector 
Microsoft (R) Macro Assembler Version 5.00                  1/19/16 21:37:03
                                                             Page     1-62


    2229 065C  E9 070A R             1	Jmp	common_int 
    2230 065F  60                    1	pusha 
    2231 0660  B8 00E9               1	Mov	ax,vector 
    2232 0663  E9 070A R             1	Jmp	common_int 
    2233 0666  60                    1	pusha 
    2234 0667  B8 00EA               1	Mov	ax,vector 
    2235 066A  E9 070A R             1	Jmp	common_int 
    2236 066D  60                    1	pusha 
    2237 066E  B8 00EB               1	Mov	ax,vector 
    2238 0671  E9 070A R             1	Jmp	common_int 
    2239 0674  60                    1	pusha 
    2240 0675  B8 00EC               1	Mov	ax,vector 
    2241 0678  E9 070A R             1	Jmp	common_int 
    2242 067B  60                    1	pusha 
    2243 067C  B8 00ED               1	Mov	ax,vector 
    2244 067F  E9 070A R             1	Jmp	common_int 
    2245 0682  60                    1	pusha 
    2246 0683  B8 00EE               1	Mov	ax,vector 
    2247 0686  E9 070A R             1	Jmp	common_int 
    2248 0689  60                    1	pusha 
    2249 068A  B8 00EF               1	Mov	ax,vector 
    2250 068D  EB 7B 90              1	Jmp	common_int 
    2251 0690  60                    1	pusha 
    2252 0691  B8 00F0               1	Mov	ax,vector 
    2253 0694  EB 74 90              1	Jmp	common_int 
    2254 0697  60                    1	pusha 
    2255 0698  B8 00F1               1	Mov	ax,vector 
    2256 069B  EB 6D 90              1	Jmp	common_int 
    2257 069E  60                    1	pusha 
    2258 069F  B8 00F2               1	Mov	ax,vector 
    2259 06A2  EB 66 90              1	Jmp	common_int 
    2260 06A5  60                    1	pusha 
    2261 06A6  B8 00F3               1	Mov	ax,vector 
    2262 06A9  EB 5F 90              1	Jmp	common_int 
    2263 06AC  60                    1	pusha 
    2264 06AD  B8 00F4               1	Mov	ax,vector 
    2265 06B0  EB 58 90              1	Jmp	common_int 
    2266 06B3  60                    1	pusha 
    2267 06B4  B8 00F5               1	Mov	ax,vector 
    2268 06B7  EB 51 90              1	Jmp	common_int 
    2269 06BA  60                    1	pusha 
    2270 06BB  B8 00F6               1	Mov	ax,vector 
    2271 06BE  EB 4A 90              1	Jmp	common_int 
    2272 06C1  60                    1	pusha 
    2273 06C2  B8 00F7               1	Mov	ax,vector 
    2274 06C5  EB 43 90              1	Jmp	common_int 
    2275 06C8  60                    1	pusha 
    2276 06C9  B8 00F8               1	Mov	ax,vector 
    2277 06CC  EB 3C 90              1	Jmp	common_int 
    2278 06CF  60                    1	pusha 
    2279 06D0  B8 00F9               1	Mov	ax,vector 
    2280 06D3  EB 35 90              1	Jmp	common_int 
    2281 06D6  60                    1	pusha 
    2282 06D7  B8 00FA               1	Mov	ax,vector 
Microsoft (R) Macro Assembler Version 5.00                  1/19/16 21:37:03
                                                             Page     1-63


    2283 06DA  EB 2E 90              1	Jmp	common_int 
    2284 06DD  60                    1	pusha 
    2285 06DE  B8 00FB               1	Mov	ax,vector 
    2286 06E1  EB 27 90              1	Jmp	common_int 
    2287 06E4  60                    1	pusha 
    2288 06E5  B8 00FC               1	Mov	ax,vector 
    2289 06E8  EB 20 90              1	Jmp	common_int 
    2290 06EB  60                    1	pusha 
    2291 06EC  B8 00FD               1	Mov	ax,vector 
    2292 06EF  EB 19 90              1	Jmp	common_int 
    2293 06F2  60                    1	pusha 
    2294 06F3  B8 00FE               1	Mov	ax,vector 
    2295 06F6  EB 12 90              1	Jmp	common_int 
    2296 06F9  60                    1	pusha 
    2297 06FA  B8 00FF               1	Mov	ax,vector 
    2298 06FD  EB 0B 90              1	Jmp	common_int 
    2299 0700  49 4E 54 45 52 55 50	Mes_int	Db		'INTERUPT N' 
    2300       54 20 4E			
    2301 070A				common_int: 
    2302				; формування номера переривання в Mes_i
					nt 
    2303 070A  B1 0A			mov	cl,10 
    2304 070C  F6 F1			div cl; молодша цифра в ah 
    2305 070E  80 CC 30			or ah,30h ;формування текстового коду ц
					ифри 
    2306 0711  8A FC			mov bh,ah 
    2307 0713  32 E4			xor	ah,ah 
    2308 0715  F6 F1			div	cl; середня цифра в ah, старша 
					- в al 
    2309 0717  0D 3030			or ax,3030h ;формування текстового коду
					 цифр 
    2310 071A  8B D0			mov dx,ax 
    2311				; виведення повідомлення на екран 
    2312 071C  68 0018 R		push offset descr_es; селектор дескрипт
					ора із 1-го етапу 
    2313 071F  07			pop	es 
    2314 0720  BE 0700 R		mov si,offset Mes_int 
    2315 0723  B9 000A			mov cx,10 
    2316 0726  BF 0A3C			mov di,2620 ;початкова адреса для вивед
					ення  
    2317 0729  B4 07			mov ah,07h ;атрибут символів 
    2318 072B				outstr: 
    2319 072B  2E: 8A 04		mov al,CS:[si] 
    2320 072E  AB			stosw 
    2321 072F  46			inc si 
    2322 0730  E2 F9			loop outstr 
    2323 0732  B0 20			mov	al,' ' 
    2324 0734  AB			stosw 
    2325 0735  8A C2			mov	al,dl ;старша десяткова цифра н
					омера вектора  
    2326 0737  AB			stosw 
    2327 0738  8A C6			mov	al,dh ;середня десяткова цифра 
					номера вектора 
    2328 073A  AB			stosw 
Microsoft (R) Macro Assembler Version 5.00                  1/19/16 21:37:03
                                                             Page     1-64


    2329 073B  8A C7			mov	al,bh ;молодша десяткова цифра 
					номера вектора 
    2330 073D  AB			stosw 
    2331				; після виведення повідомлення організу
					ємо передачу управління 
    2332				; в основний сегмент для переключення в
					 режим реальних адрес 
    2333				; Для цього використаємо команду IRET 
    2334				; В даній точці програми в стек записан
					о вміст всіх регістрів, адреса  
    2335				;команди, яка визвала виключення, та вм
					іст регістра ознак.  
    2336				; Ми все це проігноруємо і запишемо в с
					тек нові дані 
    2337 073E  9C			pushf 
    2338 073F  68 0028 R		push offset descr_cs; селектор дескрипт
					ора сегмента кодів із 1-го етапу 
    2339 0742  68 00E4 R		push offset return_dos 
    2340 0745  CF			iret; передача управління по адресі ret
					urn_dos основного сегмента кодів 
    2341 0746				common_end: 
    2342 = 0746				Int_code_size =common_end-I_beg 
    2343 0746  EB 08 90			jmp exit 
    2344 0749				MOD_error: 
    2345 0749  B4 09			mov ah,9 
    2346 074B  BA 0014 R		mov dx,offset mes1 
    2347 074E  CD 21			int 21h 
    2348				;------------------ 
    2349 0750				exit: 
    2350 0750  B4 01			mov ah,1 
    2351 0752  CD 21			int 21h 
    2352 0754  B4 4C			mov ah, 4ch		  
    2353 0756  CD 21			int 21h		 
    2354 0758  B8 ---- R		mov ax,_data 
    2355 075B  8E D8			mov ds,ax 
    2356				; формування  IDT 
    2357 075D  66| 33 C0		xor eax,eax 
    2358 0760  B8 ---- R		mov ax,IDT 
    2359 0763  66| C1 E0 04		shl eax,4 
    2360 0767  66| A3 0008 R		mov pidt.adr,eax 
    2361 076B  66| C7 06 0004 R 0000	mov pidt.lim,8*256 
    2362       0800			
    2363				; завантаження  IDT 
    2364 0774  0F 01 1E 0004 R		lidt pidt 
    2365 0779  66| 33 C0		xor eax,eax 
    2366 077C  66| A3 0008 R		mov pidt.adr,eax 
    2367 0780  66| C7 06 0004 R 0000	mov pidt.lim,3ffh 
    2368       03FF			
    2369 0789  0F 01 1E 0004 R		lidt pidt 
    2370 078E				Int_code ends 
    2371				;--------------------------------------
					------------------ 
    2372				 
    2373 0135				End Start 
Microsoft (R) Macro Assembler Version 5.00                  1/19/16 21:37:03
                                                             Symbols-1


Structures and Records:

                N a m e                 Width   # fields
                                        Shift   Width   Mask    Initial

DESCR  . . . . . . . . . . . . .  	0008	0006
  LIMIT_1  . . . . . . . . . . .  	0000
  BASE_1 . . . . . . . . . . . .  	0002
  BASE_2 . . . . . . . . . . . .  	0004
  ATTRIB . . . . . . . . . . . .  	0005
  BT6  . . . . . . . . . . . . .  	0006
  BASE_3 . . . . . . . . . . . .  	0007
POINT_DT . . . . . . . . . . . .  	0008	0002
  LIM  . . . . . . . . . . . . .  	0000
  ADR  . . . . . . . . . . . . .  	0004



                N a m e         	Size	Length	 Align	Combine Class

DGROUP . . . . . . . . . . . . .  	GROUP
  _DATA  . . . . . . . . . . . .  	16 Bit	002B	WORD	PUBLIC	'DATA'
  STACK  . . . . . . . . . . . .  	16 Bit	0100	PARA	STACK	'STACK'
GDT  . . . . . . . . . . . . . .  	16 Bit	0038	PARA	PUBLIC	'DATA'
IDT  . . . . . . . . . . . . . .  	16 Bit	0800	PARA	PUBLIC	'DATA'
INT_CODE . . . . . . . . . . . .  	16 Bit	078E	PARA	PUBLIC	'CODE'
ST_P . . . . . . . . . . . . . .  	16 Bit	03EA	PARA	NONE	
_TEXT  . . . . . . . . . . . . .  	16 Bit	0135	WORD	PUBLIC	'CODE'

Symbols:            

                N a m e         	Type	 Value	 Attr

CODE_SEG . . . . . . . . . . . .  	NUMBER	009A	
COMMON_END . . . . . . . . . . .  	L NEAR	0746	INT_CODE
COMMON_INT . . . . . . . . . . .  	L NEAR	070A	INT_CODE

DATA_SEG . . . . . . . . . . . .  	NUMBER	0092	
DESCR_CS . . . . . . . . . . . .  	L QWORD	0028	GDT
DESCR_DS . . . . . . . . . . . .  	L QWORD	0010	GDT
DESCR_ES . . . . . . . . . . . .  	L QWORD	0018	GDT
DESCR_GDT  . . . . . . . . . . .  	L QWORD	0008	GDT
DESCR_SS . . . . . . . . . . . .  	L QWORD	0020	GDT
DESKR_INT_CODE . . . . . . . . .  	L QWORD	0030	GDT

EXIT . . . . . . . . . . . . . .  	L NEAR	0750	INT_CODE

GDT_SIZE . . . . . . . . . . . .  	NUMBER	002F	

INT_CODE_SIZE  . . . . . . . . .  	NUMBER	0746	
I_BEG  . . . . . . . . . . . . .  	L NEAR	0000	INT_CODE
I_END  . . . . . . . . . . . . .  	L NEAR	0007	INT_CODE

JUMPT  . . . . . . . . . . . . .  	L NEAR	010F	_TEXT
Microsoft (R) Macro Assembler Version 5.00                  1/19/16 21:37:03
                                                             Symbols-2



MES1 . . . . . . . . . . . . . .  	L BYTE	0014	_DATA
MESS_PROTECT_MODE  . . . . . . .  	L BYTE	001F	_DATA
MES_INT  . . . . . . . . . . . .  	L BYTE	0700	INT_CODE
MOD_ERROR  . . . . . . . . . . .  	L NEAR	0749	INT_CODE

OUTMES . . . . . . . . . . . . .  	L NEAR	00D9	_TEXT
OUTSTR . . . . . . . . . . . . .  	L NEAR	072B	INT_CODE

PGDT . . . . . . . . . . . . . .  	L QWORD	000C	_DATA
PIDT . . . . . . . . . . . . . .  	L QWORD	0004	_DATA
PROC_INT_SIZE  . . . . . . . . .  	NUMBER	0007	
PROTECT  . . . . . . . . . . . .  	L NEAR	00BB	_TEXT

RETURN_DOS . . . . . . . . . . .  	L NEAR	00E4	_TEXT
R_MODE . . . . . . . . . . . . .  	L NEAR	011C	_TEXT

SELECTOR0  . . . . . . . . . . .  	L QWORD	0000	GDT
STACK_SEG  . . . . . . . . . . .  	NUMBER	0096	
START  . . . . . . . . . . . . .  	L NEAR	0000	_TEXT

TOP_REAL_MODE  . . . . . . . . .  	L DWORD	0000	_DATA
TOP_STP  . . . . . . . . . . . .  	L WORD	03E8	ST_P

VECTOR . . . . . . . . . . . . .  	NUMBER	0100	

@CODE  . . . . . . . . . . . . .  	TEXT  _TEXT		
@CODESIZE  . . . . . . . . . . .  	TEXT  0		
@DATASIZE  . . . . . . . . . . .  	TEXT  0		
@FILENAME  . . . . . . . . . . .  	TEXT  1		


    275 Source  Lines
   2831 Total   Lines
     62 Symbols

  48684 + 419220 Bytes symbol space free

      0 Warning Errors
      0 Severe  Errors
